	.file	"5ex.cpp"
	.text
	.section	.rodata
	.type	_ZStL19piecewise_construct, @object
	.size	_ZStL19piecewise_construct, 1
_ZStL19piecewise_construct:
	.zero	1
	.section	.text._ZNSt8ios_base9precisionEl,"axG",@progbits,_ZNSt8ios_base9precisionEl,comdat
	.align 2
	.weak	_ZNSt8ios_base9precisionEl
	.type	_ZNSt8ios_base9precisionEl, @function
_ZNSt8ios_base9precisionEl:
.LFB1151:
	.cfi_startproc
	endbr64
	pushq	%rbp
	.cfi_def_cfa_offset 16
	.cfi_offset 6, -16
	movq	%rsp, %rbp
	.cfi_def_cfa_register 6
	movq	%rdi, -24(%rbp)
	movq	%rsi, -32(%rbp)
	movq	-24(%rbp), %rax
	movq	8(%rax), %rax
	movq	%rax, -8(%rbp)
	movq	-24(%rbp), %rax
	movq	-32(%rbp), %rdx
	movq	%rdx, 8(%rax)
	movq	-8(%rbp), %rax
	popq	%rbp
	.cfi_def_cfa 7, 8
	ret
	.cfi_endproc
.LFE1151:
	.size	_ZNSt8ios_base9precisionEl, .-_ZNSt8ios_base9precisionEl
	.local	_ZStL8__ioinit
	.comm	_ZStL8__ioinit,1,1
	.section	.text._ZNKSt6chrono8durationIlSt5ratioILl1ELl1000000000EEE5countEv,"axG",@progbits,_ZNKSt6chrono8durationIlSt5ratioILl1ELl1000000000EEE5countEv,comdat
	.align 2
	.weak	_ZNKSt6chrono8durationIlSt5ratioILl1ELl1000000000EEE5countEv
	.type	_ZNKSt6chrono8durationIlSt5ratioILl1ELl1000000000EEE5countEv, @function
_ZNKSt6chrono8durationIlSt5ratioILl1ELl1000000000EEE5countEv:
.LFB1771:
	.cfi_startproc
	endbr64
	pushq	%rbp
	.cfi_def_cfa_offset 16
	.cfi_offset 6, -16
	movq	%rsp, %rbp
	.cfi_def_cfa_register 6
	movq	%rdi, -8(%rbp)
	movq	-8(%rbp), %rax
	movq	(%rax), %rax
	popq	%rbp
	.cfi_def_cfa 7, 8
	ret
	.cfi_endproc
.LFE1771:
	.size	_ZNKSt6chrono8durationIlSt5ratioILl1ELl1000000000EEE5countEv, .-_ZNKSt6chrono8durationIlSt5ratioILl1ELl1000000000EEE5countEv
	.section	.text._ZNSt6chrono8durationIlSt5ratioILl1ELl1000000000EEEC1IlvEERKT_,"axG",@progbits,_ZNSt6chrono8durationIlSt5ratioILl1ELl1000000000EEEC1IlvEERKT_,comdat
	.align 2
	.weak	_ZNSt6chrono8durationIlSt5ratioILl1ELl1000000000EEEC1IlvEERKT_
	.type	_ZNSt6chrono8durationIlSt5ratioILl1ELl1000000000EEEC1IlvEERKT_, @function
_ZNSt6chrono8durationIlSt5ratioILl1ELl1000000000EEEC1IlvEERKT_:
.LFB1776:
	.cfi_startproc
	endbr64
	pushq	%rbp
	.cfi_def_cfa_offset 16
	.cfi_offset 6, -16
	movq	%rsp, %rbp
	.cfi_def_cfa_register 6
	movq	%rdi, -8(%rbp)
	movq	%rsi, -16(%rbp)
	movq	-16(%rbp), %rax
	movq	(%rax), %rdx
	movq	-8(%rbp), %rax
	movq	%rdx, (%rax)
	nop
	popq	%rbp
	.cfi_def_cfa 7, 8
	ret
	.cfi_endproc
.LFE1776:
	.size	_ZNSt6chrono8durationIlSt5ratioILl1ELl1000000000EEEC1IlvEERKT_, .-_ZNSt6chrono8durationIlSt5ratioILl1ELl1000000000EEEC1IlvEERKT_
	.section	.rodata
	.align 4
	.type	_ZN9__gnu_cxxL21__default_lock_policyE, @object
	.size	_ZN9__gnu_cxxL21__default_lock_policyE, 4
_ZN9__gnu_cxxL21__default_lock_policyE:
	.long	2
	.type	_ZStL13allocator_arg, @object
	.size	_ZStL13allocator_arg, 1
_ZStL13allocator_arg:
	.zero	1
	.type	_ZStL6ignore, @object
	.size	_ZStL6ignore, 1
_ZStL6ignore:
	.zero	1
	.section	.text._ZNKSt6chrono8durationIdSt5ratioILl1ELl1EEE5countEv,"axG",@progbits,_ZNKSt6chrono8durationIdSt5ratioILl1ELl1EEE5countEv,comdat
	.align 2
	.weak	_ZNKSt6chrono8durationIdSt5ratioILl1ELl1EEE5countEv
	.type	_ZNKSt6chrono8durationIdSt5ratioILl1ELl1EEE5countEv, @function
_ZNKSt6chrono8durationIdSt5ratioILl1ELl1EEE5countEv:
.LFB2693:
	.cfi_startproc
	endbr64
	pushq	%rbp
	.cfi_def_cfa_offset 16
	.cfi_offset 6, -16
	movq	%rsp, %rbp
	.cfi_def_cfa_register 6
	movq	%rdi, -8(%rbp)
	movq	-8(%rbp), %rax
	movsd	(%rax), %xmm0
	popq	%rbp
	.cfi_def_cfa 7, 8
	ret
	.cfi_endproc
.LFE2693:
	.size	_ZNKSt6chrono8durationIdSt5ratioILl1ELl1EEE5countEv, .-_ZNKSt6chrono8durationIdSt5ratioILl1ELl1EEE5countEv
	.section	.text._ZNSt6chrono8durationIdSt5ratioILl1ELl1EEEC1IlS1_ILl1ELl1000000000EEvEERKNS0_IT_T0_EE,"axG",@progbits,_ZNSt6chrono8durationIdSt5ratioILl1ELl1EEEC1IlS1_ILl1ELl1000000000EEvEERKNS0_IT_T0_EE,comdat
	.align 2
	.weak	_ZNSt6chrono8durationIdSt5ratioILl1ELl1EEEC1IlS1_ILl1ELl1000000000EEvEERKNS0_IT_T0_EE
	.type	_ZNSt6chrono8durationIdSt5ratioILl1ELl1EEEC1IlS1_ILl1ELl1000000000EEvEERKNS0_IT_T0_EE, @function
_ZNSt6chrono8durationIdSt5ratioILl1ELl1EEEC1IlS1_ILl1ELl1000000000EEvEERKNS0_IT_T0_EE:
.LFB2696:
	.cfi_startproc
	endbr64
	pushq	%rbp
	.cfi_def_cfa_offset 16
	.cfi_offset 6, -16
	movq	%rsp, %rbp
	.cfi_def_cfa_register 6
	subq	$32, %rsp
	movq	%rdi, -24(%rbp)
	movq	%rsi, -32(%rbp)
	movq	%fs:40, %rax
	movq	%rax, -8(%rbp)
	xorl	%eax, %eax
	movq	-32(%rbp), %rax
	movq	%rax, %rdi
	call	_ZNSt6chrono13duration_castINS_8durationIdSt5ratioILl1ELl1EEEElS2_ILl1ELl1000000000EEEENSt9enable_ifIXsrNS_13__is_durationIT_EE5valueES8_E4typeERKNS1_IT0_T1_EE
	movsd	%xmm0, -16(%rbp)
	leaq	-16(%rbp), %rax
	movq	%rax, %rdi
	call	_ZNKSt6chrono8durationIdSt5ratioILl1ELl1EEE5countEv
	movq	%xmm0, %rax
	movq	-24(%rbp), %rdx
	movq	%rax, (%rdx)
	nop
	movq	-8(%rbp), %rax
	xorq	%fs:40, %rax
	je	.L9
	call	__stack_chk_fail@PLT
.L9:
	leave
	.cfi_def_cfa 7, 8
	ret
	.cfi_endproc
.LFE2696:
	.size	_ZNSt6chrono8durationIdSt5ratioILl1ELl1EEEC1IlS1_ILl1ELl1000000000EEvEERKNS0_IT_T0_EE, .-_ZNSt6chrono8durationIdSt5ratioILl1ELl1EEEC1IlS1_ILl1ELl1000000000EEvEERKNS0_IT_T0_EE
	.section	.text._ZNSt6chronomiINS_3_V212system_clockENS_8durationIlSt5ratioILl1ELl1000000000EEEES6_EENSt11common_typeIJT0_T1_EE4typeERKNS_10time_pointIT_S8_EERKNSC_ISD_S9_EE,"axG",@progbits,_ZNSt6chronomiINS_3_V212system_clockENS_8durationIlSt5ratioILl1ELl1000000000EEEES6_EENSt11common_typeIJT0_T1_EE4typeERKNS_10time_pointIT_S8_EERKNSC_ISD_S9_EE,comdat
	.weak	_ZNSt6chronomiINS_3_V212system_clockENS_8durationIlSt5ratioILl1ELl1000000000EEEES6_EENSt11common_typeIJT0_T1_EE4typeERKNS_10time_pointIT_S8_EERKNSC_ISD_S9_EE
	.type	_ZNSt6chronomiINS_3_V212system_clockENS_8durationIlSt5ratioILl1ELl1000000000EEEES6_EENSt11common_typeIJT0_T1_EE4typeERKNS_10time_pointIT_S8_EERKNSC_ISD_S9_EE, @function
_ZNSt6chronomiINS_3_V212system_clockENS_8durationIlSt5ratioILl1ELl1000000000EEEES6_EENSt11common_typeIJT0_T1_EE4typeERKNS_10time_pointIT_S8_EERKNSC_ISD_S9_EE:
.LFB2697:
	.cfi_startproc
	endbr64
	pushq	%rbp
	.cfi_def_cfa_offset 16
	.cfi_offset 6, -16
	movq	%rsp, %rbp
	.cfi_def_cfa_register 6
	subq	$48, %rsp
	movq	%rdi, -40(%rbp)
	movq	%rsi, -48(%rbp)
	movq	%fs:40, %rax
	movq	%rax, -8(%rbp)
	xorl	%eax, %eax
	movq	-48(%rbp), %rax
	movq	%rax, %rdi
	call	_ZNKSt6chrono10time_pointINS_3_V212system_clockENS_8durationIlSt5ratioILl1ELl1000000000EEEEE16time_since_epochEv
	movq	%rax, -16(%rbp)
	movq	-40(%rbp), %rax
	movq	%rax, %rdi
	call	_ZNKSt6chrono10time_pointINS_3_V212system_clockENS_8durationIlSt5ratioILl1ELl1000000000EEEEE16time_since_epochEv
	movq	%rax, -24(%rbp)
	leaq	-16(%rbp), %rdx
	leaq	-24(%rbp), %rax
	movq	%rdx, %rsi
	movq	%rax, %rdi
	call	_ZNSt6chronomiIlSt5ratioILl1ELl1000000000EElS2_EENSt11common_typeIJNS_8durationIT_T0_EENS4_IT1_T2_EEEE4typeERKS7_RKSA_
	movq	-8(%rbp), %rcx
	xorq	%fs:40, %rcx
	je	.L12
	call	__stack_chk_fail@PLT
.L12:
	leave
	.cfi_def_cfa 7, 8
	ret
	.cfi_endproc
.LFE2697:
	.size	_ZNSt6chronomiINS_3_V212system_clockENS_8durationIlSt5ratioILl1ELl1000000000EEEES6_EENSt11common_typeIJT0_T1_EE4typeERKNS_10time_pointIT_S8_EERKNSC_ISD_S9_EE, .-_ZNSt6chronomiINS_3_V212system_clockENS_8durationIlSt5ratioILl1ELl1000000000EEEES6_EENSt11common_typeIJT0_T1_EE4typeERKNS_10time_pointIT_S8_EERKNSC_ISD_S9_EE
	.section	.text._ZNSt6chronomiIlSt5ratioILl1ELl1000000000EElS2_EENSt11common_typeIJNS_8durationIT_T0_EENS4_IT1_T2_EEEE4typeERKS7_RKSA_,"axG",@progbits,_ZNSt6chronomiIlSt5ratioILl1ELl1000000000EElS2_EENSt11common_typeIJNS_8durationIT_T0_EENS4_IT1_T2_EEEE4typeERKS7_RKSA_,comdat
	.weak	_ZNSt6chronomiIlSt5ratioILl1ELl1000000000EElS2_EENSt11common_typeIJNS_8durationIT_T0_EENS4_IT1_T2_EEEE4typeERKS7_RKSA_
	.type	_ZNSt6chronomiIlSt5ratioILl1ELl1000000000EElS2_EENSt11common_typeIJNS_8durationIT_T0_EENS4_IT1_T2_EEEE4typeERKS7_RKSA_, @function
_ZNSt6chronomiIlSt5ratioILl1ELl1000000000EElS2_EENSt11common_typeIJNS_8durationIT_T0_EENS4_IT1_T2_EEEE4typeERKS7_RKSA_:
.LFB2698:
	.cfi_startproc
	endbr64
	pushq	%rbp
	.cfi_def_cfa_offset 16
	.cfi_offset 6, -16
	movq	%rsp, %rbp
	.cfi_def_cfa_register 6
	pushq	%rbx
	subq	$72, %rsp
	.cfi_offset 3, -24
	movq	%rdi, -72(%rbp)
	movq	%rsi, -80(%rbp)
	movq	%fs:40, %rax
	movq	%rax, -24(%rbp)
	xorl	%eax, %eax
	movq	-72(%rbp), %rax
	movq	(%rax), %rax
	movq	%rax, -56(%rbp)
	leaq	-56(%rbp), %rax
	movq	%rax, %rdi
	call	_ZNKSt6chrono8durationIlSt5ratioILl1ELl1000000000EEE5countEv
	movq	%rax, %rbx
	movq	-80(%rbp), %rax
	movq	(%rax), %rax
	movq	%rax, -48(%rbp)
	leaq	-48(%rbp), %rax
	movq	%rax, %rdi
	call	_ZNKSt6chrono8durationIlSt5ratioILl1ELl1000000000EEE5countEv
	subq	%rax, %rbx
	movq	%rbx, %rax
	movq	%rax, -40(%rbp)
	leaq	-40(%rbp), %rdx
	leaq	-32(%rbp), %rax
	movq	%rdx, %rsi
	movq	%rax, %rdi
	call	_ZNSt6chrono8durationIlSt5ratioILl1ELl1000000000EEEC1IlvEERKT_
	movq	-32(%rbp), %rax
	movq	-24(%rbp), %rcx
	xorq	%fs:40, %rcx
	je	.L15
	call	__stack_chk_fail@PLT
.L15:
	addq	$72, %rsp
	popq	%rbx
	popq	%rbp
	.cfi_def_cfa 7, 8
	ret
	.cfi_endproc
.LFE2698:
	.size	_ZNSt6chronomiIlSt5ratioILl1ELl1000000000EElS2_EENSt11common_typeIJNS_8durationIT_T0_EENS4_IT1_T2_EEEE4typeERKS7_RKSA_, .-_ZNSt6chronomiIlSt5ratioILl1ELl1000000000EElS2_EENSt11common_typeIJNS_8durationIT_T0_EENS4_IT1_T2_EEEE4typeERKS7_RKSA_
	.section	.text._ZNKSt6chrono10time_pointINS_3_V212system_clockENS_8durationIlSt5ratioILl1ELl1000000000EEEEE16time_since_epochEv,"axG",@progbits,_ZNKSt6chrono10time_pointINS_3_V212system_clockENS_8durationIlSt5ratioILl1ELl1000000000EEEEE16time_since_epochEv,comdat
	.align 2
	.weak	_ZNKSt6chrono10time_pointINS_3_V212system_clockENS_8durationIlSt5ratioILl1ELl1000000000EEEEE16time_since_epochEv
	.type	_ZNKSt6chrono10time_pointINS_3_V212system_clockENS_8durationIlSt5ratioILl1ELl1000000000EEEEE16time_since_epochEv, @function
_ZNKSt6chrono10time_pointINS_3_V212system_clockENS_8durationIlSt5ratioILl1ELl1000000000EEEEE16time_since_epochEv:
.LFB2699:
	.cfi_startproc
	endbr64
	pushq	%rbp
	.cfi_def_cfa_offset 16
	.cfi_offset 6, -16
	movq	%rsp, %rbp
	.cfi_def_cfa_register 6
	movq	%rdi, -8(%rbp)
	movq	-8(%rbp), %rax
	movq	(%rax), %rax
	popq	%rbp
	.cfi_def_cfa 7, 8
	ret
	.cfi_endproc
.LFE2699:
	.size	_ZNKSt6chrono10time_pointINS_3_V212system_clockENS_8durationIlSt5ratioILl1ELl1000000000EEEEE16time_since_epochEv, .-_ZNKSt6chrono10time_pointINS_3_V212system_clockENS_8durationIlSt5ratioILl1ELl1000000000EEEEE16time_since_epochEv
	.text
	.globl	main
	.type	main, @function
main:
.LFB2690:
	.cfi_startproc
	.cfi_personality 0x9b,DW.ref.__gxx_personality_v0
	.cfi_lsda 0x1b,.LLSDA2690
	endbr64
	pushq	%rbp
	.cfi_def_cfa_offset 16
	.cfi_offset 6, -16
	movq	%rsp, %rbp
	.cfi_def_cfa_register 6
	pushq	%rbx
	subq	$56, %rsp
	.cfi_offset 3, -24
	movq	%fs:40, %rax
	movq	%rax, -24(%rbp)
	xorl	%eax, %eax
	movl	$1, %edi
.LEHB0:
	call	_Znwm@PLT
.LEHE0:
	movq	%rax, %rdx
	leaq	-64(%rbp), %rax
	movq	%rdx, %rsi
	movq	%rax, %rdi
	call	_ZNSt10unique_ptrI4ItemSt14default_deleteIS0_EEC1IS2_vEEPS0_
	call	_ZNSt6chrono3_V212system_clock3nowEv@PLT
	movq	%rax, -56(%rbp)
	leaq	-64(%rbp), %rax
	movq	%rax, %rdi
	call	_ZNKSt10unique_ptrI4ItemSt14default_deleteIS0_EEdeEv
	call	_ZNKSt10unique_ptrI4ItemSt14default_deleteIS0_EEdeEv
	call	_ZNKSt10unique_ptrI4ItemSt14default_deleteIS0_EEdeEv
	call	_ZNKSt10unique_ptrI4ItemSt14default_deleteIS0_EEdeEv
	call	_ZNKSt10unique_ptrI4ItemSt14default_deleteIS0_EEdeEv
	call	_ZNKSt10unique_ptrI4ItemSt14default_deleteIS0_EEdeEv
	call	_ZNKSt10unique_ptrI4ItemSt14default_deleteIS0_EEdeEv
	call	_ZNKSt10unique_ptrI4ItemSt14default_deleteIS0_EEdeEv
	call	_ZNKSt10unique_ptrI4ItemSt14default_deleteIS0_EEdeEv
	call	_ZNKSt10unique_ptrI4ItemSt14default_deleteIS0_EEdeEv
	call	_ZNKSt10unique_ptrI4ItemSt14default_deleteIS0_EEdeEv
    	call	_ZNKSt10unique_ptrI4ItemSt14default_deleteIS0_EEdeEv
    	call	_ZNKSt10unique_ptrI4ItemSt14default_deleteIS0_EEdeEv
    	call	_ZNKSt10unique_ptrI4ItemSt14default_deleteIS0_EEdeEv
    	call	_ZNKSt10unique_ptrI4ItemSt14default_deleteIS0_EEdeEv
    	call	_ZNKSt10unique_ptrI4ItemSt14default_deleteIS0_EEdeEv
    	call	_ZNKSt10unique_ptrI4ItemSt14default_deleteIS0_EEdeEv
    	call	_ZNKSt10unique_ptrI4ItemSt14default_deleteIS0_EEdeEv
    	call	_ZNKSt10unique_ptrI4ItemSt14default_deleteIS0_EEdeEv
    	call	_ZNKSt10unique_ptrI4ItemSt14default_deleteIS0_EEdeEv
    	call	_ZNKSt10unique_ptrI4ItemSt14default_deleteIS0_EEdeEv
        	call	_ZNKSt10unique_ptrI4ItemSt14default_deleteIS0_EEdeEv
        	call	_ZNKSt10unique_ptrI4ItemSt14default_deleteIS0_EEdeEv
        	call	_ZNKSt10unique_ptrI4ItemSt14default_deleteIS0_EEdeEv
        	call	_ZNKSt10unique_ptrI4ItemSt14default_deleteIS0_EEdeEv
        	call	_ZNKSt10unique_ptrI4ItemSt14default_deleteIS0_EEdeEv
        	call	_ZNKSt10unique_ptrI4ItemSt14default_deleteIS0_EEdeEv
        	call	_ZNKSt10unique_ptrI4ItemSt14default_deleteIS0_EEdeEv
        	call	_ZNKSt10unique_ptrI4ItemSt14default_deleteIS0_EEdeEv
        	call	_ZNKSt10unique_ptrI4ItemSt14default_deleteIS0_EEdeEv
        	call	_ZNKSt10unique_ptrI4ItemSt14default_deleteIS0_EEdeEv
            	call	_ZNKSt10unique_ptrI4ItemSt14default_deleteIS0_EEdeEv
            	call	_ZNKSt10unique_ptrI4ItemSt14default_deleteIS0_EEdeEv
            	call	_ZNKSt10unique_ptrI4ItemSt14default_deleteIS0_EEdeEv
            	call	_ZNKSt10unique_ptrI4ItemSt14default_deleteIS0_EEdeEv
            	call	_ZNKSt10unique_ptrI4ItemSt14default_deleteIS0_EEdeEv
            	call	_ZNKSt10unique_ptrI4ItemSt14default_deleteIS0_EEdeEv
            	call	_ZNKSt10unique_ptrI4ItemSt14default_deleteIS0_EEdeEv
            	call	_ZNKSt10unique_ptrI4ItemSt14default_deleteIS0_EEdeEv
            	call	_ZNKSt10unique_ptrI4ItemSt14default_deleteIS0_EEdeEv
            	call	_ZNKSt10unique_ptrI4ItemSt14default_deleteIS0_EEdeEv
                	call	_ZNKSt10unique_ptrI4ItemSt14default_deleteIS0_EEdeEv
                	call	_ZNKSt10unique_ptrI4ItemSt14default_deleteIS0_EEdeEv
                	call	_ZNKSt10unique_ptrI4ItemSt14default_deleteIS0_EEdeEv
                	call	_ZNKSt10unique_ptrI4ItemSt14default_deleteIS0_EEdeEv
                	call	_ZNKSt10unique_ptrI4ItemSt14default_deleteIS0_EEdeEv
                	call	_ZNKSt10unique_ptrI4ItemSt14default_deleteIS0_EEdeEv
                	call	_ZNKSt10unique_ptrI4ItemSt14default_deleteIS0_EEdeEv
                	call	_ZNKSt10unique_ptrI4ItemSt14default_deleteIS0_EEdeEv
                	call	_ZNKSt10unique_ptrI4ItemSt14default_deleteIS0_EEdeEv
                	call	_ZNKSt10unique_ptrI4ItemSt14default_deleteIS0_EEdeEv
                    	call	_ZNKSt10unique_ptrI4ItemSt14default_deleteIS0_EEdeEv
                    	call	_ZNKSt10unique_ptrI4ItemSt14default_deleteIS0_EEdeEv
                    	call	_ZNKSt10unique_ptrI4ItemSt14default_deleteIS0_EEdeEv
                    	call	_ZNKSt10unique_ptrI4ItemSt14default_deleteIS0_EEdeEv
                    	call	_ZNKSt10unique_ptrI4ItemSt14default_deleteIS0_EEdeEv
                    	call	_ZNKSt10unique_ptrI4ItemSt14default_deleteIS0_EEdeEv
                    	call	_ZNKSt10unique_ptrI4ItemSt14default_deleteIS0_EEdeEv
                    	call	_ZNKSt10unique_ptrI4ItemSt14default_deleteIS0_EEdeEv
                    	call	_ZNKSt10unique_ptrI4ItemSt14default_deleteIS0_EEdeEv
                    	call	_ZNKSt10unique_ptrI4ItemSt14default_deleteIS0_EEdeEv
                        	call	_ZNKSt10unique_ptrI4ItemSt14default_deleteIS0_EEdeEv
                        	call	_ZNKSt10unique_ptrI4ItemSt14default_deleteIS0_EEdeEv
                        	call	_ZNKSt10unique_ptrI4ItemSt14default_deleteIS0_EEdeEv
                        	call	_ZNKSt10unique_ptrI4ItemSt14default_deleteIS0_EEdeEv
                        	call	_ZNKSt10unique_ptrI4ItemSt14default_deleteIS0_EEdeEv
                        	call	_ZNKSt10unique_ptrI4ItemSt14default_deleteIS0_EEdeEv
                        	call	_ZNKSt10unique_ptrI4ItemSt14default_deleteIS0_EEdeEv
                        	call	_ZNKSt10unique_ptrI4ItemSt14default_deleteIS0_EEdeEv
                        	call	_ZNKSt10unique_ptrI4ItemSt14default_deleteIS0_EEdeEv
                        	call	_ZNKSt10unique_ptrI4ItemSt14default_deleteIS0_EEdeEv
                            	call	_ZNKSt10unique_ptrI4ItemSt14default_deleteIS0_EEdeEv
                            	call	_ZNKSt10unique_ptrI4ItemSt14default_deleteIS0_EEdeEv
                            	call	_ZNKSt10unique_ptrI4ItemSt14default_deleteIS0_EEdeEv
                            	call	_ZNKSt10unique_ptrI4ItemSt14default_deleteIS0_EEdeEv
                            	call	_ZNKSt10unique_ptrI4ItemSt14default_deleteIS0_EEdeEv
                            	call	_ZNKSt10unique_ptrI4ItemSt14default_deleteIS0_EEdeEv
                            	call	_ZNKSt10unique_ptrI4ItemSt14default_deleteIS0_EEdeEv
                            	call	_ZNKSt10unique_ptrI4ItemSt14default_deleteIS0_EEdeEv
                            	call	_ZNKSt10unique_ptrI4ItemSt14default_deleteIS0_EEdeEv
                            	call	_ZNKSt10unique_ptrI4ItemSt14default_deleteIS0_EEdeEv
                                	call	_ZNKSt10unique_ptrI4ItemSt14default_deleteIS0_EEdeEv
                                	call	_ZNKSt10unique_ptrI4ItemSt14default_deleteIS0_EEdeEv
                                	call	_ZNKSt10unique_ptrI4ItemSt14default_deleteIS0_EEdeEv
                                	call	_ZNKSt10unique_ptrI4ItemSt14default_deleteIS0_EEdeEv
                                	call	_ZNKSt10unique_ptrI4ItemSt14default_deleteIS0_EEdeEv
                                	call	_ZNKSt10unique_ptrI4ItemSt14default_deleteIS0_EEdeEv
                                	call	_ZNKSt10unique_ptrI4ItemSt14default_deleteIS0_EEdeEv
                                	call	_ZNKSt10unique_ptrI4ItemSt14default_deleteIS0_EEdeEv
                                	call	_ZNKSt10unique_ptrI4ItemSt14default_deleteIS0_EEdeEv
                                	call	_ZNKSt10unique_ptrI4ItemSt14default_deleteIS0_EEdeEv
                                    	call	_ZNKSt10unique_ptrI4ItemSt14default_deleteIS0_EEdeEv
                                    	call	_ZNKSt10unique_ptrI4ItemSt14default_deleteIS0_EEdeEv
                                    	call	_ZNKSt10unique_ptrI4ItemSt14default_deleteIS0_EEdeEv
                                    	call	_ZNKSt10unique_ptrI4ItemSt14default_deleteIS0_EEdeEv
                                    	call	_ZNKSt10unique_ptrI4ItemSt14default_deleteIS0_EEdeEv
                                    	call	_ZNKSt10unique_ptrI4ItemSt14default_deleteIS0_EEdeEv
                                    	call	_ZNKSt10unique_ptrI4ItemSt14default_deleteIS0_EEdeEv
                                    	call	_ZNKSt10unique_ptrI4ItemSt14default_deleteIS0_EEdeEv
                                    	call	_ZNKSt10unique_ptrI4ItemSt14default_deleteIS0_EEdeEv
                                    	call	_ZNKSt10unique_ptrI4ItemSt14default_deleteIS0_EEdeEv
                                        	call	_ZNKSt10unique_ptrI4ItemSt14default_deleteIS0_EEdeEv
                                        	call	_ZNKSt10unique_ptrI4ItemSt14default_deleteIS0_EEdeEv
                                        	call	_ZNKSt10unique_ptrI4ItemSt14default_deleteIS0_EEdeEv
                                        	call	_ZNKSt10unique_ptrI4ItemSt14default_deleteIS0_EEdeEv
                                        	call	_ZNKSt10unique_ptrI4ItemSt14default_deleteIS0_EEdeEv
                                        	call	_ZNKSt10unique_ptrI4ItemSt14default_deleteIS0_EEdeEv
                                        	call	_ZNKSt10unique_ptrI4ItemSt14default_deleteIS0_EEdeEv
                                        	call	_ZNKSt10unique_ptrI4ItemSt14default_deleteIS0_EEdeEv
                                        	call	_ZNKSt10unique_ptrI4ItemSt14default_deleteIS0_EEdeEv
                                        	call	_ZNKSt10unique_ptrI4ItemSt14default_deleteIS0_EEdeEv
                                            	call	_ZNKSt10unique_ptrI4ItemSt14default_deleteIS0_EEdeEv
                                            	call	_ZNKSt10unique_ptrI4ItemSt14default_deleteIS0_EEdeEv
                                            	call	_ZNKSt10unique_ptrI4ItemSt14default_deleteIS0_EEdeEv
                                            	call	_ZNKSt10unique_ptrI4ItemSt14default_deleteIS0_EEdeEv
                                            	call	_ZNKSt10unique_ptrI4ItemSt14default_deleteIS0_EEdeEv
                                            	call	_ZNKSt10unique_ptrI4ItemSt14default_deleteIS0_EEdeEv
                                            	call	_ZNKSt10unique_ptrI4ItemSt14default_deleteIS0_EEdeEv
                                            	call	_ZNKSt10unique_ptrI4ItemSt14default_deleteIS0_EEdeEv
                                            	call	_ZNKSt10unique_ptrI4ItemSt14default_deleteIS0_EEdeEv
                                            	call	_ZNKSt10unique_ptrI4ItemSt14default_deleteIS0_EEdeEv
                                                	call	_ZNKSt10unique_ptrI4ItemSt14default_deleteIS0_EEdeEv
                                                	call	_ZNKSt10unique_ptrI4ItemSt14default_deleteIS0_EEdeEv
                                                	call	_ZNKSt10unique_ptrI4ItemSt14default_deleteIS0_EEdeEv
                                                	call	_ZNKSt10unique_ptrI4ItemSt14default_deleteIS0_EEdeEv
                                                	call	_ZNKSt10unique_ptrI4ItemSt14default_deleteIS0_EEdeEv
                                                	call	_ZNKSt10unique_ptrI4ItemSt14default_deleteIS0_EEdeEv
                                                	call	_ZNKSt10unique_ptrI4ItemSt14default_deleteIS0_EEdeEv
                                                	call	_ZNKSt10unique_ptrI4ItemSt14default_deleteIS0_EEdeEv
                                                	call	_ZNKSt10unique_ptrI4ItemSt14default_deleteIS0_EEdeEv
                                                	call	_ZNKSt10unique_ptrI4ItemSt14default_deleteIS0_EEdeEv
                                                    	call	_ZNKSt10unique_ptrI4ItemSt14default_deleteIS0_EEdeEv
                                                    	call	_ZNKSt10unique_ptrI4ItemSt14default_deleteIS0_EEdeEv
                                                    	call	_ZNKSt10unique_ptrI4ItemSt14default_deleteIS0_EEdeEv
                                                    	call	_ZNKSt10unique_ptrI4ItemSt14default_deleteIS0_EEdeEv
                                                    	call	_ZNKSt10unique_ptrI4ItemSt14default_deleteIS0_EEdeEv
                                                    	call	_ZNKSt10unique_ptrI4ItemSt14default_deleteIS0_EEdeEv
                                                    	call	_ZNKSt10unique_ptrI4ItemSt14default_deleteIS0_EEdeEv
                                                    	call	_ZNKSt10unique_ptrI4ItemSt14default_deleteIS0_EEdeEv
                                                    	call	_ZNKSt10unique_ptrI4ItemSt14default_deleteIS0_EEdeEv
                                                    	call	_ZNKSt10unique_ptrI4ItemSt14default_deleteIS0_EEdeEv
                                                        	call	_ZNKSt10unique_ptrI4ItemSt14default_deleteIS0_EEdeEv
                                                        	call	_ZNKSt10unique_ptrI4ItemSt14default_deleteIS0_EEdeEv
                                                        	call	_ZNKSt10unique_ptrI4ItemSt14default_deleteIS0_EEdeEv
                                                        	call	_ZNKSt10unique_ptrI4ItemSt14default_deleteIS0_EEdeEv
                                                        	call	_ZNKSt10unique_ptrI4ItemSt14default_deleteIS0_EEdeEv
                                                        	call	_ZNKSt10unique_ptrI4ItemSt14default_deleteIS0_EEdeEv
                                                        	call	_ZNKSt10unique_ptrI4ItemSt14default_deleteIS0_EEdeEv
                                                        	call	_ZNKSt10unique_ptrI4ItemSt14default_deleteIS0_EEdeEv
                                                        	call	_ZNKSt10unique_ptrI4ItemSt14default_deleteIS0_EEdeEv
                                                        	call	_ZNKSt10unique_ptrI4ItemSt14default_deleteIS0_EEdeEv
                                                            	call	_ZNKSt10unique_ptrI4ItemSt14default_deleteIS0_EEdeEv
                                                            	call	_ZNKSt10unique_ptrI4ItemSt14default_deleteIS0_EEdeEv
                                                            	call	_ZNKSt10unique_ptrI4ItemSt14default_deleteIS0_EEdeEv
                                                            	call	_ZNKSt10unique_ptrI4ItemSt14default_deleteIS0_EEdeEv
                                                            	call	_ZNKSt10unique_ptrI4ItemSt14default_deleteIS0_EEdeEv
                                                            	call	_ZNKSt10unique_ptrI4ItemSt14default_deleteIS0_EEdeEv
                                                            	call	_ZNKSt10unique_ptrI4ItemSt14default_deleteIS0_EEdeEv
                                                            	call	_ZNKSt10unique_ptrI4ItemSt14default_deleteIS0_EEdeEv
                                                            	call	_ZNKSt10unique_ptrI4ItemSt14default_deleteIS0_EEdeEv
                                                            	call	_ZNKSt10unique_ptrI4ItemSt14default_deleteIS0_EEdeEv
                                                                	call	_ZNKSt10unique_ptrI4ItemSt14default_deleteIS0_EEdeEv
                                                                	call	_ZNKSt10unique_ptrI4ItemSt14default_deleteIS0_EEdeEv
                                                                	call	_ZNKSt10unique_ptrI4ItemSt14default_deleteIS0_EEdeEv
                                                                	call	_ZNKSt10unique_ptrI4ItemSt14default_deleteIS0_EEdeEv
                                                                	call	_ZNKSt10unique_ptrI4ItemSt14default_deleteIS0_EEdeEv
                                                                	call	_ZNKSt10unique_ptrI4ItemSt14default_deleteIS0_EEdeEv
                                                                	call	_ZNKSt10unique_ptrI4ItemSt14default_deleteIS0_EEdeEv
                                                                	call	_ZNKSt10unique_ptrI4ItemSt14default_deleteIS0_EEdeEv
                                                                	call	_ZNKSt10unique_ptrI4ItemSt14default_deleteIS0_EEdeEv
                                                                	call	_ZNKSt10unique_ptrI4ItemSt14default_deleteIS0_EEdeEv
                                                                    	call	_ZNKSt10unique_ptrI4ItemSt14default_deleteIS0_EEdeEv
                                                                    	call	_ZNKSt10unique_ptrI4ItemSt14default_deleteIS0_EEdeEv
                                                                    	call	_ZNKSt10unique_ptrI4ItemSt14default_deleteIS0_EEdeEv
                                                                    	call	_ZNKSt10unique_ptrI4ItemSt14default_deleteIS0_EEdeEv
                                                                    	call	_ZNKSt10unique_ptrI4ItemSt14default_deleteIS0_EEdeEv
                                                                    	call	_ZNKSt10unique_ptrI4ItemSt14default_deleteIS0_EEdeEv
                                                                    	call	_ZNKSt10unique_ptrI4ItemSt14default_deleteIS0_EEdeEv
                                                                    	call	_ZNKSt10unique_ptrI4ItemSt14default_deleteIS0_EEdeEv
                                                                    	call	_ZNKSt10unique_ptrI4ItemSt14default_deleteIS0_EEdeEv
                                                                    	call	_ZNKSt10unique_ptrI4ItemSt14default_deleteIS0_EEdeEv
                                                                        	call	_ZNKSt10unique_ptrI4ItemSt14default_deleteIS0_EEdeEv
                                                                        	call	_ZNKSt10unique_ptrI4ItemSt14default_deleteIS0_EEdeEv
                                                                        	call	_ZNKSt10unique_ptrI4ItemSt14default_deleteIS0_EEdeEv
                                                                        	call	_ZNKSt10unique_ptrI4ItemSt14default_deleteIS0_EEdeEv
                                                                        	call	_ZNKSt10unique_ptrI4ItemSt14default_deleteIS0_EEdeEv
                                                                        	call	_ZNKSt10unique_ptrI4ItemSt14default_deleteIS0_EEdeEv
                                                                        	call	_ZNKSt10unique_ptrI4ItemSt14default_deleteIS0_EEdeEv
                                                                        	call	_ZNKSt10unique_ptrI4ItemSt14default_deleteIS0_EEdeEv
                                                                        	call	_ZNKSt10unique_ptrI4ItemSt14default_deleteIS0_EEdeEv
                                                                        	call	_ZNKSt10unique_ptrI4ItemSt14default_deleteIS0_EEdeEv
                                                                            	call	_ZNKSt10unique_ptrI4ItemSt14default_deleteIS0_EEdeEv
                                                                            	call	_ZNKSt10unique_ptrI4ItemSt14default_deleteIS0_EEdeEv
                                                                            	call	_ZNKSt10unique_ptrI4ItemSt14default_deleteIS0_EEdeEv
                                                                            	call	_ZNKSt10unique_ptrI4ItemSt14default_deleteIS0_EEdeEv
                                                                            	call	_ZNKSt10unique_ptrI4ItemSt14default_deleteIS0_EEdeEv
                                                                            	call	_ZNKSt10unique_ptrI4ItemSt14default_deleteIS0_EEdeEv
                                                                            	call	_ZNKSt10unique_ptrI4ItemSt14default_deleteIS0_EEdeEv
                                                                            	call	_ZNKSt10unique_ptrI4ItemSt14default_deleteIS0_EEdeEv
                                                                            	call	_ZNKSt10unique_ptrI4ItemSt14default_deleteIS0_EEdeEv
                                                                            	call	_ZNKSt10unique_ptrI4ItemSt14default_deleteIS0_EEdeEv
                                                                                	call	_ZNKSt10unique_ptrI4ItemSt14default_deleteIS0_EEdeEv
                                                                                	call	_ZNKSt10unique_ptrI4ItemSt14default_deleteIS0_EEdeEv
                                                                                	call	_ZNKSt10unique_ptrI4ItemSt14default_deleteIS0_EEdeEv
                                                                                	call	_ZNKSt10unique_ptrI4ItemSt14default_deleteIS0_EEdeEv
                                                                                	call	_ZNKSt10unique_ptrI4ItemSt14default_deleteIS0_EEdeEv
                                                                                	call	_ZNKSt10unique_ptrI4ItemSt14default_deleteIS0_EEdeEv
                                                                                	call	_ZNKSt10unique_ptrI4ItemSt14default_deleteIS0_EEdeEv
                                                                                	call	_ZNKSt10unique_ptrI4ItemSt14default_deleteIS0_EEdeEv
                                                                                	call	_ZNKSt10unique_ptrI4ItemSt14default_deleteIS0_EEdeEv
                                                                                	call	_ZNKSt10unique_ptrI4ItemSt14default_deleteIS0_EEdeEv
                                                                                    	call	_ZNKSt10unique_ptrI4ItemSt14default_deleteIS0_EEdeEv
                                                                                    	call	_ZNKSt10unique_ptrI4ItemSt14default_deleteIS0_EEdeEv
                                                                                    	call	_ZNKSt10unique_ptrI4ItemSt14default_deleteIS0_EEdeEv
                                                                                    	call	_ZNKSt10unique_ptrI4ItemSt14default_deleteIS0_EEdeEv
                                                                                    	call	_ZNKSt10unique_ptrI4ItemSt14default_deleteIS0_EEdeEv
                                                                                    	call	_ZNKSt10unique_ptrI4ItemSt14default_deleteIS0_EEdeEv
                                                                                    	call	_ZNKSt10unique_ptrI4ItemSt14default_deleteIS0_EEdeEv
                                                                                    	call	_ZNKSt10unique_ptrI4ItemSt14default_deleteIS0_EEdeEv
                                                                                    	call	_ZNKSt10unique_ptrI4ItemSt14default_deleteIS0_EEdeEv
                                                                                    	call	_ZNKSt10unique_ptrI4ItemSt14default_deleteIS0_EEdeEv
                                                                                        	call	_ZNKSt10unique_ptrI4ItemSt14default_deleteIS0_EEdeEv
                                                                                        	call	_ZNKSt10unique_ptrI4ItemSt14default_deleteIS0_EEdeEv
                                                                                        	call	_ZNKSt10unique_ptrI4ItemSt14default_deleteIS0_EEdeEv
                                                                                        	call	_ZNKSt10unique_ptrI4ItemSt14default_deleteIS0_EEdeEv
                                                                                        	call	_ZNKSt10unique_ptrI4ItemSt14default_deleteIS0_EEdeEv
                                                                                        	call	_ZNKSt10unique_ptrI4ItemSt14default_deleteIS0_EEdeEv
                                                                                        	call	_ZNKSt10unique_ptrI4ItemSt14default_deleteIS0_EEdeEv
                                                                                        	call	_ZNKSt10unique_ptrI4ItemSt14default_deleteIS0_EEdeEv
                                                                                        	call	_ZNKSt10unique_ptrI4ItemSt14default_deleteIS0_EEdeEv
                                                                                        	call	_ZNKSt10unique_ptrI4ItemSt14default_deleteIS0_EEdeEv
                                                                                            	call	_ZNKSt10unique_ptrI4ItemSt14default_deleteIS0_EEdeEv
                                                                                            	call	_ZNKSt10unique_ptrI4ItemSt14default_deleteIS0_EEdeEv
                                                                                            	call	_ZNKSt10unique_ptrI4ItemSt14default_deleteIS0_EEdeEv
                                                                                            	call	_ZNKSt10unique_ptrI4ItemSt14default_deleteIS0_EEdeEv
                                                                                            	call	_ZNKSt10unique_ptrI4ItemSt14default_deleteIS0_EEdeEv
                                                                                            	call	_ZNKSt10unique_ptrI4ItemSt14default_deleteIS0_EEdeEv
                                                                                            	call	_ZNKSt10unique_ptrI4ItemSt14default_deleteIS0_EEdeEv
                                                                                            	call	_ZNKSt10unique_ptrI4ItemSt14default_deleteIS0_EEdeEv
                                                                                            	call	_ZNKSt10unique_ptrI4ItemSt14default_deleteIS0_EEdeEv
                                                                                            	call	_ZNKSt10unique_ptrI4ItemSt14default_deleteIS0_EEdeEv
                                                                                                	call	_ZNKSt10unique_ptrI4ItemSt14default_deleteIS0_EEdeEv
                                                                                                	call	_ZNKSt10unique_ptrI4ItemSt14default_deleteIS0_EEdeEv
                                                                                                	call	_ZNKSt10unique_ptrI4ItemSt14default_deleteIS0_EEdeEv
                                                                                                	call	_ZNKSt10unique_ptrI4ItemSt14default_deleteIS0_EEdeEv
                                                                                                	call	_ZNKSt10unique_ptrI4ItemSt14default_deleteIS0_EEdeEv
                                                                                                	call	_ZNKSt10unique_ptrI4ItemSt14default_deleteIS0_EEdeEv
                                                                                                	call	_ZNKSt10unique_ptrI4ItemSt14default_deleteIS0_EEdeEv
                                                                                                	call	_ZNKSt10unique_ptrI4ItemSt14default_deleteIS0_EEdeEv
                                                                                                	call	_ZNKSt10unique_ptrI4ItemSt14default_deleteIS0_EEdeEv
                                                                                                	call	_ZNKSt10unique_ptrI4ItemSt14default_deleteIS0_EEdeEv
                                                                                                    	call	_ZNKSt10unique_ptrI4ItemSt14default_deleteIS0_EEdeEv
                                                                                                    	call	_ZNKSt10unique_ptrI4ItemSt14default_deleteIS0_EEdeEv
                                                                                                    	call	_ZNKSt10unique_ptrI4ItemSt14default_deleteIS0_EEdeEv
                                                                                                    	call	_ZNKSt10unique_ptrI4ItemSt14default_deleteIS0_EEdeEv
                                                                                                    	call	_ZNKSt10unique_ptrI4ItemSt14default_deleteIS0_EEdeEv
                                                                                                    	call	_ZNKSt10unique_ptrI4ItemSt14default_deleteIS0_EEdeEv
                                                                                                    	call	_ZNKSt10unique_ptrI4ItemSt14default_deleteIS0_EEdeEv
                                                                                                    	call	_ZNKSt10unique_ptrI4ItemSt14default_deleteIS0_EEdeEv
                                                                                                    	call	_ZNKSt10unique_ptrI4ItemSt14default_deleteIS0_EEdeEv
                                                                                                    	call	_ZNKSt10unique_ptrI4ItemSt14default_deleteIS0_EEdeEv
                                                                                                        	call	_ZNKSt10unique_ptrI4ItemSt14default_deleteIS0_EEdeEv
                                                                                                        	call	_ZNKSt10unique_ptrI4ItemSt14default_deleteIS0_EEdeEv
                                                                                                        	call	_ZNKSt10unique_ptrI4ItemSt14default_deleteIS0_EEdeEv
                                                                                                        	call	_ZNKSt10unique_ptrI4ItemSt14default_deleteIS0_EEdeEv
                                                                                                        	call	_ZNKSt10unique_ptrI4ItemSt14default_deleteIS0_EEdeEv
                                                                                                        	call	_ZNKSt10unique_ptrI4ItemSt14default_deleteIS0_EEdeEv
                                                                                                        	call	_ZNKSt10unique_ptrI4ItemSt14default_deleteIS0_EEdeEv
                                                                                                        	call	_ZNKSt10unique_ptrI4ItemSt14default_deleteIS0_EEdeEv
                                                                                                        	call	_ZNKSt10unique_ptrI4ItemSt14default_deleteIS0_EEdeEv
                                                                                                        	call	_ZNKSt10unique_ptrI4ItemSt14default_deleteIS0_EEdeEv
                                                                                                            	call	_ZNKSt10unique_ptrI4ItemSt14default_deleteIS0_EEdeEv
                                                                                                            	call	_ZNKSt10unique_ptrI4ItemSt14default_deleteIS0_EEdeEv
                                                                                                            	call	_ZNKSt10unique_ptrI4ItemSt14default_deleteIS0_EEdeEv
                                                                                                            	call	_ZNKSt10unique_ptrI4ItemSt14default_deleteIS0_EEdeEv
                                                                                                            	call	_ZNKSt10unique_ptrI4ItemSt14default_deleteIS0_EEdeEv
                                                                                                            	call	_ZNKSt10unique_ptrI4ItemSt14default_deleteIS0_EEdeEv
                                                                                                            	call	_ZNKSt10unique_ptrI4ItemSt14default_deleteIS0_EEdeEv
                                                                                                            	call	_ZNKSt10unique_ptrI4ItemSt14default_deleteIS0_EEdeEv
                                                                                                            	call	_ZNKSt10unique_ptrI4ItemSt14default_deleteIS0_EEdeEv
                                                                                                            	call	_ZNKSt10unique_ptrI4ItemSt14default_deleteIS0_EEdeEv
                                                                                                                	call	_ZNKSt10unique_ptrI4ItemSt14default_deleteIS0_EEdeEv
                                                                                                                	call	_ZNKSt10unique_ptrI4ItemSt14default_deleteIS0_EEdeEv
                                                                                                                	call	_ZNKSt10unique_ptrI4ItemSt14default_deleteIS0_EEdeEv
                                                                                                                	call	_ZNKSt10unique_ptrI4ItemSt14default_deleteIS0_EEdeEv
                                                                                                                	call	_ZNKSt10unique_ptrI4ItemSt14default_deleteIS0_EEdeEv
                                                                                                                	call	_ZNKSt10unique_ptrI4ItemSt14default_deleteIS0_EEdeEv
                                                                                                                	call	_ZNKSt10unique_ptrI4ItemSt14default_deleteIS0_EEdeEv
                                                                                                                	call	_ZNKSt10unique_ptrI4ItemSt14default_deleteIS0_EEdeEv
                                                                                                                	call	_ZNKSt10unique_ptrI4ItemSt14default_deleteIS0_EEdeEv
                                                                                                                	call	_ZNKSt10unique_ptrI4ItemSt14default_deleteIS0_EEdeEv
                                                                                                                    	call	_ZNKSt10unique_ptrI4ItemSt14default_deleteIS0_EEdeEv
                                                                                                                    	call	_ZNKSt10unique_ptrI4ItemSt14default_deleteIS0_EEdeEv
                                                                                                                    	call	_ZNKSt10unique_ptrI4ItemSt14default_deleteIS0_EEdeEv
                                                                                                                    	call	_ZNKSt10unique_ptrI4ItemSt14default_deleteIS0_EEdeEv
                                                                                                                    	call	_ZNKSt10unique_ptrI4ItemSt14default_deleteIS0_EEdeEv
                                                                                                                    	call	_ZNKSt10unique_ptrI4ItemSt14default_deleteIS0_EEdeEv
                                                                                                                    	call	_ZNKSt10unique_ptrI4ItemSt14default_deleteIS0_EEdeEv
                                                                                                                    	call	_ZNKSt10unique_ptrI4ItemSt14default_deleteIS0_EEdeEv
                                                                                                                    	call	_ZNKSt10unique_ptrI4ItemSt14default_deleteIS0_EEdeEv
                                                                                                                    	call	_ZNKSt10unique_ptrI4ItemSt14default_deleteIS0_EEdeEv
                                                                                                                        	call	_ZNKSt10unique_ptrI4ItemSt14default_deleteIS0_EEdeEv
                                                                                                                        	call	_ZNKSt10unique_ptrI4ItemSt14default_deleteIS0_EEdeEv
                                                                                                                        	call	_ZNKSt10unique_ptrI4ItemSt14default_deleteIS0_EEdeEv
                                                                                                                        	call	_ZNKSt10unique_ptrI4ItemSt14default_deleteIS0_EEdeEv
                                                                                                                        	call	_ZNKSt10unique_ptrI4ItemSt14default_deleteIS0_EEdeEv
                                                                                                                        	call	_ZNKSt10unique_ptrI4ItemSt14default_deleteIS0_EEdeEv
                                                                                                                        	call	_ZNKSt10unique_ptrI4ItemSt14default_deleteIS0_EEdeEv
                                                                                                                        	call	_ZNKSt10unique_ptrI4ItemSt14default_deleteIS0_EEdeEv
                                                                                                                        	call	_ZNKSt10unique_ptrI4ItemSt14default_deleteIS0_EEdeEv
                                                                                                                        	call	_ZNKSt10unique_ptrI4ItemSt14default_deleteIS0_EEdeEv
                                                                                                                            	call	_ZNKSt10unique_ptrI4ItemSt14default_deleteIS0_EEdeEv
                                                                                                                            	call	_ZNKSt10unique_ptrI4ItemSt14default_deleteIS0_EEdeEv
                                                                                                                            	call	_ZNKSt10unique_ptrI4ItemSt14default_deleteIS0_EEdeEv
                                                                                                                            	call	_ZNKSt10unique_ptrI4ItemSt14default_deleteIS0_EEdeEv
                                                                                                                            	call	_ZNKSt10unique_ptrI4ItemSt14default_deleteIS0_EEdeEv
                                                                                                                            	call	_ZNKSt10unique_ptrI4ItemSt14default_deleteIS0_EEdeEv
                                                                                                                            	call	_ZNKSt10unique_ptrI4ItemSt14default_deleteIS0_EEdeEv
                                                                                                                            	call	_ZNKSt10unique_ptrI4ItemSt14default_deleteIS0_EEdeEv
                                                                                                                            	call	_ZNKSt10unique_ptrI4ItemSt14default_deleteIS0_EEdeEv
                                                                                                                            	call	_ZNKSt10unique_ptrI4ItemSt14default_deleteIS0_EEdeEv
                                                                                                                                	call	_ZNKSt10unique_ptrI4ItemSt14default_deleteIS0_EEdeEv
                                                                                                                                	call	_ZNKSt10unique_ptrI4ItemSt14default_deleteIS0_EEdeEv
                                                                                                                                	call	_ZNKSt10unique_ptrI4ItemSt14default_deleteIS0_EEdeEv
                                                                                                                                	call	_ZNKSt10unique_ptrI4ItemSt14default_deleteIS0_EEdeEv
                                                                                                                                	call	_ZNKSt10unique_ptrI4ItemSt14default_deleteIS0_EEdeEv
                                                                                                                                	call	_ZNKSt10unique_ptrI4ItemSt14default_deleteIS0_EEdeEv
                                                                                                                                	call	_ZNKSt10unique_ptrI4ItemSt14default_deleteIS0_EEdeEv
                                                                                                                                	call	_ZNKSt10unique_ptrI4ItemSt14default_deleteIS0_EEdeEv
                                                                                                                                	call	_ZNKSt10unique_ptrI4ItemSt14default_deleteIS0_EEdeEv
                                                                                                                                	call	_ZNKSt10unique_ptrI4ItemSt14default_deleteIS0_EEdeEv
                                                                                                                                    	call	_ZNKSt10unique_ptrI4ItemSt14default_deleteIS0_EEdeEv
                                                                                                                                    	call	_ZNKSt10unique_ptrI4ItemSt14default_deleteIS0_EEdeEv
                                                                                                                                    	call	_ZNKSt10unique_ptrI4ItemSt14default_deleteIS0_EEdeEv
                                                                                                                                    	call	_ZNKSt10unique_ptrI4ItemSt14default_deleteIS0_EEdeEv
                                                                                                                                    	call	_ZNKSt10unique_ptrI4ItemSt14default_deleteIS0_EEdeEv
                                                                                                                                    	call	_ZNKSt10unique_ptrI4ItemSt14default_deleteIS0_EEdeEv
                                                                                                                                    	call	_ZNKSt10unique_ptrI4ItemSt14default_deleteIS0_EEdeEv
                                                                                                                                    	call	_ZNKSt10unique_ptrI4ItemSt14default_deleteIS0_EEdeEv
                                                                                                                                    	call	_ZNKSt10unique_ptrI4ItemSt14default_deleteIS0_EEdeEv
                                                                                                                                    	call	_ZNKSt10unique_ptrI4ItemSt14default_deleteIS0_EEdeEv
                                                                                                                                        	call	_ZNKSt10unique_ptrI4ItemSt14default_deleteIS0_EEdeEv
                                                                                                                                        	call	_ZNKSt10unique_ptrI4ItemSt14default_deleteIS0_EEdeEv
                                                                                                                                        	call	_ZNKSt10unique_ptrI4ItemSt14default_deleteIS0_EEdeEv
                                                                                                                                        	call	_ZNKSt10unique_ptrI4ItemSt14default_deleteIS0_EEdeEv
                                                                                                                                        	call	_ZNKSt10unique_ptrI4ItemSt14default_deleteIS0_EEdeEv
                                                                                                                                        	call	_ZNKSt10unique_ptrI4ItemSt14default_deleteIS0_EEdeEv
                                                                                                                                        	call	_ZNKSt10unique_ptrI4ItemSt14default_deleteIS0_EEdeEv
                                                                                                                                        	call	_ZNKSt10unique_ptrI4ItemSt14default_deleteIS0_EEdeEv
                                                                                                                                        	call	_ZNKSt10unique_ptrI4ItemSt14default_deleteIS0_EEdeEv
                                                                                                                                        	call	_ZNKSt10unique_ptrI4ItemSt14default_deleteIS0_EEdeEv
                                                                                                                                            	call	_ZNKSt10unique_ptrI4ItemSt14default_deleteIS0_EEdeEv
                                                                                                                                            	call	_ZNKSt10unique_ptrI4ItemSt14default_deleteIS0_EEdeEv
                                                                                                                                            	call	_ZNKSt10unique_ptrI4ItemSt14default_deleteIS0_EEdeEv
                                                                                                                                            	call	_ZNKSt10unique_ptrI4ItemSt14default_deleteIS0_EEdeEv
                                                                                                                                            	call	_ZNKSt10unique_ptrI4ItemSt14default_deleteIS0_EEdeEv
                                                                                                                                            	call	_ZNKSt10unique_ptrI4ItemSt14default_deleteIS0_EEdeEv
                                                                                                                                            	call	_ZNKSt10unique_ptrI4ItemSt14default_deleteIS0_EEdeEv
                                                                                                                                            	call	_ZNKSt10unique_ptrI4ItemSt14default_deleteIS0_EEdeEv
                                                                                                                                            	call	_ZNKSt10unique_ptrI4ItemSt14default_deleteIS0_EEdeEv
                                                                                                                                            	call	_ZNKSt10unique_ptrI4ItemSt14default_deleteIS0_EEdeEv
                                                                                                                                                	call	_ZNKSt10unique_ptrI4ItemSt14default_deleteIS0_EEdeEv
                                                                                                                                                	call	_ZNKSt10unique_ptrI4ItemSt14default_deleteIS0_EEdeEv
                                                                                                                                                	call	_ZNKSt10unique_ptrI4ItemSt14default_deleteIS0_EEdeEv
                                                                                                                                                	call	_ZNKSt10unique_ptrI4ItemSt14default_deleteIS0_EEdeEv
                                                                                                                                                	call	_ZNKSt10unique_ptrI4ItemSt14default_deleteIS0_EEdeEv
                                                                                                                                                	call	_ZNKSt10unique_ptrI4ItemSt14default_deleteIS0_EEdeEv
                                                                                                                                                	call	_ZNKSt10unique_ptrI4ItemSt14default_deleteIS0_EEdeEv
                                                                                                                                                	call	_ZNKSt10unique_ptrI4ItemSt14default_deleteIS0_EEdeEv
                                                                                                                                                	call	_ZNKSt10unique_ptrI4ItemSt14default_deleteIS0_EEdeEv
                                                                                                                                                	call	_ZNKSt10unique_ptrI4ItemSt14default_deleteIS0_EEdeEv
                                                                                                                                                    	call	_ZNKSt10unique_ptrI4ItemSt14default_deleteIS0_EEdeEv
                                                                                                                                                    	call	_ZNKSt10unique_ptrI4ItemSt14default_deleteIS0_EEdeEv
                                                                                                                                                    	call	_ZNKSt10unique_ptrI4ItemSt14default_deleteIS0_EEdeEv
                                                                                                                                                    	call	_ZNKSt10unique_ptrI4ItemSt14default_deleteIS0_EEdeEv
                                                                                                                                                    	call	_ZNKSt10unique_ptrI4ItemSt14default_deleteIS0_EEdeEv
                                                                                                                                                    	call	_ZNKSt10unique_ptrI4ItemSt14default_deleteIS0_EEdeEv
                                                                                                                                                    	call	_ZNKSt10unique_ptrI4ItemSt14default_deleteIS0_EEdeEv
                                                                                                                                                    	call	_ZNKSt10unique_ptrI4ItemSt14default_deleteIS0_EEdeEv
                                                                                                                                                    	call	_ZNKSt10unique_ptrI4ItemSt14default_deleteIS0_EEdeEv
                                                                                                                                                    	call	_ZNKSt10unique_ptrI4ItemSt14default_deleteIS0_EEdeEv
                                                                                                                                                        	call	_ZNKSt10unique_ptrI4ItemSt14default_deleteIS0_EEdeEv
                                                                                                                                                        	call	_ZNKSt10unique_ptrI4ItemSt14default_deleteIS0_EEdeEv
                                                                                                                                                        	call	_ZNKSt10unique_ptrI4ItemSt14default_deleteIS0_EEdeEv
                                                                                                                                                        	call	_ZNKSt10unique_ptrI4ItemSt14default_deleteIS0_EEdeEv
                                                                                                                                                        	call	_ZNKSt10unique_ptrI4ItemSt14default_deleteIS0_EEdeEv
                                                                                                                                                        	call	_ZNKSt10unique_ptrI4ItemSt14default_deleteIS0_EEdeEv
                                                                                                                                                        	call	_ZNKSt10unique_ptrI4ItemSt14default_deleteIS0_EEdeEv
                                                                                                                                                        	call	_ZNKSt10unique_ptrI4ItemSt14default_deleteIS0_EEdeEv
                                                                                                                                                        	call	_ZNKSt10unique_ptrI4ItemSt14default_deleteIS0_EEdeEv
                                                                                                                                                        	call	_ZNKSt10unique_ptrI4ItemSt14default_deleteIS0_EEdeEv
                                                                                                                                                            	call	_ZNKSt10unique_ptrI4ItemSt14default_deleteIS0_EEdeEv
                                                                                                                                                            	call	_ZNKSt10unique_ptrI4ItemSt14default_deleteIS0_EEdeEv
                                                                                                                                                            	call	_ZNKSt10unique_ptrI4ItemSt14default_deleteIS0_EEdeEv
                                                                                                                                                            	call	_ZNKSt10unique_ptrI4ItemSt14default_deleteIS0_EEdeEv
                                                                                                                                                            	call	_ZNKSt10unique_ptrI4ItemSt14default_deleteIS0_EEdeEv
                                                                                                                                                            	call	_ZNKSt10unique_ptrI4ItemSt14default_deleteIS0_EEdeEv
                                                                                                                                                            	call	_ZNKSt10unique_ptrI4ItemSt14default_deleteIS0_EEdeEv
                                                                                                                                                            	call	_ZNKSt10unique_ptrI4ItemSt14default_deleteIS0_EEdeEv
                                                                                                                                                            	call	_ZNKSt10unique_ptrI4ItemSt14default_deleteIS0_EEdeEv
                                                                                                                                                            	call	_ZNKSt10unique_ptrI4ItemSt14default_deleteIS0_EEdeEv
                                                                                                                                                                	call	_ZNKSt10unique_ptrI4ItemSt14default_deleteIS0_EEdeEv
                                                                                                                                                                	call	_ZNKSt10unique_ptrI4ItemSt14default_deleteIS0_EEdeEv
                                                                                                                                                                	call	_ZNKSt10unique_ptrI4ItemSt14default_deleteIS0_EEdeEv
                                                                                                                                                                	call	_ZNKSt10unique_ptrI4ItemSt14default_deleteIS0_EEdeEv
                                                                                                                                                                	call	_ZNKSt10unique_ptrI4ItemSt14default_deleteIS0_EEdeEv
                                                                                                                                                                	call	_ZNKSt10unique_ptrI4ItemSt14default_deleteIS0_EEdeEv
                                                                                                                                                                	call	_ZNKSt10unique_ptrI4ItemSt14default_deleteIS0_EEdeEv
                                                                                                                                                                	call	_ZNKSt10unique_ptrI4ItemSt14default_deleteIS0_EEdeEv
                                                                                                                                                                	call	_ZNKSt10unique_ptrI4ItemSt14default_deleteIS0_EEdeEv
                                                                                                                                                                	call	_ZNKSt10unique_ptrI4ItemSt14default_deleteIS0_EEdeEv
                                                                                                                                                                    	call	_ZNKSt10unique_ptrI4ItemSt14default_deleteIS0_EEdeEv
                                                                                                                                                                    	call	_ZNKSt10unique_ptrI4ItemSt14default_deleteIS0_EEdeEv
                                                                                                                                                                    	call	_ZNKSt10unique_ptrI4ItemSt14default_deleteIS0_EEdeEv
                                                                                                                                                                    	call	_ZNKSt10unique_ptrI4ItemSt14default_deleteIS0_EEdeEv
                                                                                                                                                                    	call	_ZNKSt10unique_ptrI4ItemSt14default_deleteIS0_EEdeEv
                                                                                                                                                                    	call	_ZNKSt10unique_ptrI4ItemSt14default_deleteIS0_EEdeEv
                                                                                                                                                                    	call	_ZNKSt10unique_ptrI4ItemSt14default_deleteIS0_EEdeEv
                                                                                                                                                                    	call	_ZNKSt10unique_ptrI4ItemSt14default_deleteIS0_EEdeEv
                                                                                                                                                                    	call	_ZNKSt10unique_ptrI4ItemSt14default_deleteIS0_EEdeEv
                                                                                                                                                                    	call	_ZNKSt10unique_ptrI4ItemSt14default_deleteIS0_EEdeEv
                                                                                                                                                                        	call	_ZNKSt10unique_ptrI4ItemSt14default_deleteIS0_EEdeEv
                                                                                                                                                                        	call	_ZNKSt10unique_ptrI4ItemSt14default_deleteIS0_EEdeEv
                                                                                                                                                                        	call	_ZNKSt10unique_ptrI4ItemSt14default_deleteIS0_EEdeEv
                                                                                                                                                                        	call	_ZNKSt10unique_ptrI4ItemSt14default_deleteIS0_EEdeEv
                                                                                                                                                                        	call	_ZNKSt10unique_ptrI4ItemSt14default_deleteIS0_EEdeEv
                                                                                                                                                                        	call	_ZNKSt10unique_ptrI4ItemSt14default_deleteIS0_EEdeEv
                                                                                                                                                                        	call	_ZNKSt10unique_ptrI4ItemSt14default_deleteIS0_EEdeEv
                                                                                                                                                                        	call	_ZNKSt10unique_ptrI4ItemSt14default_deleteIS0_EEdeEv
                                                                                                                                                                        	call	_ZNKSt10unique_ptrI4ItemSt14default_deleteIS0_EEdeEv
                                                                                                                                                                        	call	_ZNKSt10unique_ptrI4ItemSt14default_deleteIS0_EEdeEv
                                                                                                                                                                            	call	_ZNKSt10unique_ptrI4ItemSt14default_deleteIS0_EEdeEv
                                                                                                                                                                            	call	_ZNKSt10unique_ptrI4ItemSt14default_deleteIS0_EEdeEv
                                                                                                                                                                            	call	_ZNKSt10unique_ptrI4ItemSt14default_deleteIS0_EEdeEv
                                                                                                                                                                            	call	_ZNKSt10unique_ptrI4ItemSt14default_deleteIS0_EEdeEv
                                                                                                                                                                            	call	_ZNKSt10unique_ptrI4ItemSt14default_deleteIS0_EEdeEv
                                                                                                                                                                            	call	_ZNKSt10unique_ptrI4ItemSt14default_deleteIS0_EEdeEv
                                                                                                                                                                            	call	_ZNKSt10unique_ptrI4ItemSt14default_deleteIS0_EEdeEv
                                                                                                                                                                            	call	_ZNKSt10unique_ptrI4ItemSt14default_deleteIS0_EEdeEv
                                                                                                                                                                            	call	_ZNKSt10unique_ptrI4ItemSt14default_deleteIS0_EEdeEv
                                                                                                                                                                            	call	_ZNKSt10unique_ptrI4ItemSt14default_deleteIS0_EEdeEv
                                                                                                                                                                                	call	_ZNKSt10unique_ptrI4ItemSt14default_deleteIS0_EEdeEv
                                                                                                                                                                                	call	_ZNKSt10unique_ptrI4ItemSt14default_deleteIS0_EEdeEv
                                                                                                                                                                                	call	_ZNKSt10unique_ptrI4ItemSt14default_deleteIS0_EEdeEv
                                                                                                                                                                                	call	_ZNKSt10unique_ptrI4ItemSt14default_deleteIS0_EEdeEv
                                                                                                                                                                                	call	_ZNKSt10unique_ptrI4ItemSt14default_deleteIS0_EEdeEv
                                                                                                                                                                                	call	_ZNKSt10unique_ptrI4ItemSt14default_deleteIS0_EEdeEv
                                                                                                                                                                                	call	_ZNKSt10unique_ptrI4ItemSt14default_deleteIS0_EEdeEv
                                                                                                                                                                                	call	_ZNKSt10unique_ptrI4ItemSt14default_deleteIS0_EEdeEv
                                                                                                                                                                                	call	_ZNKSt10unique_ptrI4ItemSt14default_deleteIS0_EEdeEv
                                                                                                                                                                                	call	_ZNKSt10unique_ptrI4ItemSt14default_deleteIS0_EEdeEv
                                                                                                                                                                                    	call	_ZNKSt10unique_ptrI4ItemSt14default_deleteIS0_EEdeEv
                                                                                                                                                                                    	call	_ZNKSt10unique_ptrI4ItemSt14default_deleteIS0_EEdeEv
                                                                                                                                                                                    	call	_ZNKSt10unique_ptrI4ItemSt14default_deleteIS0_EEdeEv
                                                                                                                                                                                    	call	_ZNKSt10unique_ptrI4ItemSt14default_deleteIS0_EEdeEv
                                                                                                                                                                                    	call	_ZNKSt10unique_ptrI4ItemSt14default_deleteIS0_EEdeEv
                                                                                                                                                                                    	call	_ZNKSt10unique_ptrI4ItemSt14default_deleteIS0_EEdeEv
                                                                                                                                                                                    	call	_ZNKSt10unique_ptrI4ItemSt14default_deleteIS0_EEdeEv
                                                                                                                                                                                    	call	_ZNKSt10unique_ptrI4ItemSt14default_deleteIS0_EEdeEv
                                                                                                                                                                                    	call	_ZNKSt10unique_ptrI4ItemSt14default_deleteIS0_EEdeEv
                                                                                                                                                                                    	call	_ZNKSt10unique_ptrI4ItemSt14default_deleteIS0_EEdeEv
                                                                                                                                                                                        	call	_ZNKSt10unique_ptrI4ItemSt14default_deleteIS0_EEdeEv
                                                                                                                                                                                        	call	_ZNKSt10unique_ptrI4ItemSt14default_deleteIS0_EEdeEv
                                                                                                                                                                                        	call	_ZNKSt10unique_ptrI4ItemSt14default_deleteIS0_EEdeEv
                                                                                                                                                                                        	call	_ZNKSt10unique_ptrI4ItemSt14default_deleteIS0_EEdeEv
                                                                                                                                                                                        	call	_ZNKSt10unique_ptrI4ItemSt14default_deleteIS0_EEdeEv
                                                                                                                                                                                        	call	_ZNKSt10unique_ptrI4ItemSt14default_deleteIS0_EEdeEv
                                                                                                                                                                                        	call	_ZNKSt10unique_ptrI4ItemSt14default_deleteIS0_EEdeEv
                                                                                                                                                                                        	call	_ZNKSt10unique_ptrI4ItemSt14default_deleteIS0_EEdeEv
                                                                                                                                                                                        	call	_ZNKSt10unique_ptrI4ItemSt14default_deleteIS0_EEdeEv
                                                                                                                                                                                        	call	_ZNKSt10unique_ptrI4ItemSt14default_deleteIS0_EEdeEv
                                                                                                                                                                                            	call	_ZNKSt10unique_ptrI4ItemSt14default_deleteIS0_EEdeEv
                                                                                                                                                                                            	call	_ZNKSt10unique_ptrI4ItemSt14default_deleteIS0_EEdeEv
                                                                                                                                                                                            	call	_ZNKSt10unique_ptrI4ItemSt14default_deleteIS0_EEdeEv
                                                                                                                                                                                            	call	_ZNKSt10unique_ptrI4ItemSt14default_deleteIS0_EEdeEv
                                                                                                                                                                                            	call	_ZNKSt10unique_ptrI4ItemSt14default_deleteIS0_EEdeEv
                                                                                                                                                                                            	call	_ZNKSt10unique_ptrI4ItemSt14default_deleteIS0_EEdeEv
                                                                                                                                                                                            	call	_ZNKSt10unique_ptrI4ItemSt14default_deleteIS0_EEdeEv
                                                                                                                                                                                            	call	_ZNKSt10unique_ptrI4ItemSt14default_deleteIS0_EEdeEv
                                                                                                                                                                                            	call	_ZNKSt10unique_ptrI4ItemSt14default_deleteIS0_EEdeEv
                                                                                                                                                                                            	call	_ZNKSt10unique_ptrI4ItemSt14default_deleteIS0_EEdeEv
                                                                                                                                                                                                	call	_ZNKSt10unique_ptrI4ItemSt14default_deleteIS0_EEdeEv
                                                                                                                                                                                                	call	_ZNKSt10unique_ptrI4ItemSt14default_deleteIS0_EEdeEv
                                                                                                                                                                                                	call	_ZNKSt10unique_ptrI4ItemSt14default_deleteIS0_EEdeEv
                                                                                                                                                                                                	call	_ZNKSt10unique_ptrI4ItemSt14default_deleteIS0_EEdeEv
                                                                                                                                                                                                	call	_ZNKSt10unique_ptrI4ItemSt14default_deleteIS0_EEdeEv
                                                                                                                                                                                                	call	_ZNKSt10unique_ptrI4ItemSt14default_deleteIS0_EEdeEv
                                                                                                                                                                                                	call	_ZNKSt10unique_ptrI4ItemSt14default_deleteIS0_EEdeEv
                                                                                                                                                                                                	call	_ZNKSt10unique_ptrI4ItemSt14default_deleteIS0_EEdeEv
                                                                                                                                                                                                	call	_ZNKSt10unique_ptrI4ItemSt14default_deleteIS0_EEdeEv
                                                                                                                                                                                                	call	_ZNKSt10unique_ptrI4ItemSt14default_deleteIS0_EEdeEv
                                                                                                                                                                                                    	call	_ZNKSt10unique_ptrI4ItemSt14default_deleteIS0_EEdeEv
                                                                                                                                                                                                    	call	_ZNKSt10unique_ptrI4ItemSt14default_deleteIS0_EEdeEv
                                                                                                                                                                                                    	call	_ZNKSt10unique_ptrI4ItemSt14default_deleteIS0_EEdeEv
                                                                                                                                                                                                    	call	_ZNKSt10unique_ptrI4ItemSt14default_deleteIS0_EEdeEv
                                                                                                                                                                                                    	call	_ZNKSt10unique_ptrI4ItemSt14default_deleteIS0_EEdeEv
                                                                                                                                                                                                    	call	_ZNKSt10unique_ptrI4ItemSt14default_deleteIS0_EEdeEv
                                                                                                                                                                                                    	call	_ZNKSt10unique_ptrI4ItemSt14default_deleteIS0_EEdeEv
                                                                                                                                                                                                    	call	_ZNKSt10unique_ptrI4ItemSt14default_deleteIS0_EEdeEv
                                                                                                                                                                                                    	call	_ZNKSt10unique_ptrI4ItemSt14default_deleteIS0_EEdeEv
                                                                                                                                                                                                    	call	_ZNKSt10unique_ptrI4ItemSt14default_deleteIS0_EEdeEv
                                                                                                                                                                                                        	call	_ZNKSt10unique_ptrI4ItemSt14default_deleteIS0_EEdeEv
                                                                                                                                                                                                        	call	_ZNKSt10unique_ptrI4ItemSt14default_deleteIS0_EEdeEv
                                                                                                                                                                                                        	call	_ZNKSt10unique_ptrI4ItemSt14default_deleteIS0_EEdeEv
                                                                                                                                                                                                        	call	_ZNKSt10unique_ptrI4ItemSt14default_deleteIS0_EEdeEv
                                                                                                                                                                                                        	call	_ZNKSt10unique_ptrI4ItemSt14default_deleteIS0_EEdeEv
                                                                                                                                                                                                        	call	_ZNKSt10unique_ptrI4ItemSt14default_deleteIS0_EEdeEv
                                                                                                                                                                                                        	call	_ZNKSt10unique_ptrI4ItemSt14default_deleteIS0_EEdeEv
                                                                                                                                                                                                        	call	_ZNKSt10unique_ptrI4ItemSt14default_deleteIS0_EEdeEv
                                                                                                                                                                                                        	call	_ZNKSt10unique_ptrI4ItemSt14default_deleteIS0_EEdeEv
                                                                                                                                                                                                        	call	_ZNKSt10unique_ptrI4ItemSt14default_deleteIS0_EEdeEv
                                                                                                                                                                                                            	call	_ZNKSt10unique_ptrI4ItemSt14default_deleteIS0_EEdeEv
                                                                                                                                                                                                            	call	_ZNKSt10unique_ptrI4ItemSt14default_deleteIS0_EEdeEv
                                                                                                                                                                                                            	call	_ZNKSt10unique_ptrI4ItemSt14default_deleteIS0_EEdeEv
                                                                                                                                                                                                            	call	_ZNKSt10unique_ptrI4ItemSt14default_deleteIS0_EEdeEv
                                                                                                                                                                                                            	call	_ZNKSt10unique_ptrI4ItemSt14default_deleteIS0_EEdeEv
                                                                                                                                                                                                            	call	_ZNKSt10unique_ptrI4ItemSt14default_deleteIS0_EEdeEv
                                                                                                                                                                                                            	call	_ZNKSt10unique_ptrI4ItemSt14default_deleteIS0_EEdeEv
                                                                                                                                                                                                            	call	_ZNKSt10unique_ptrI4ItemSt14default_deleteIS0_EEdeEv
                                                                                                                                                                                                            	call	_ZNKSt10unique_ptrI4ItemSt14default_deleteIS0_EEdeEv
                                                                                                                                                                                                            	call	_ZNKSt10unique_ptrI4ItemSt14default_deleteIS0_EEdeEv
                                                                                                                                                                                                                	call	_ZNKSt10unique_ptrI4ItemSt14default_deleteIS0_EEdeEv
                                                                                                                                                                                                                	call	_ZNKSt10unique_ptrI4ItemSt14default_deleteIS0_EEdeEv
                                                                                                                                                                                                                	call	_ZNKSt10unique_ptrI4ItemSt14default_deleteIS0_EEdeEv
                                                                                                                                                                                                                	call	_ZNKSt10unique_ptrI4ItemSt14default_deleteIS0_EEdeEv
                                                                                                                                                                                                                	call	_ZNKSt10unique_ptrI4ItemSt14default_deleteIS0_EEdeEv
                                                                                                                                                                                                                	call	_ZNKSt10unique_ptrI4ItemSt14default_deleteIS0_EEdeEv
                                                                                                                                                                                                                	call	_ZNKSt10unique_ptrI4ItemSt14default_deleteIS0_EEdeEv
                                                                                                                                                                                                                	call	_ZNKSt10unique_ptrI4ItemSt14default_deleteIS0_EEdeEv
                                                                                                                                                                                                                	call	_ZNKSt10unique_ptrI4ItemSt14default_deleteIS0_EEdeEv
                                                                                                                                                                                                                	call	_ZNKSt10unique_ptrI4ItemSt14default_deleteIS0_EEdeEv
                                                                                                                                                                                                                    	call	_ZNKSt10unique_ptrI4ItemSt14default_deleteIS0_EEdeEv
                                                                                                                                                                                                                    	call	_ZNKSt10unique_ptrI4ItemSt14default_deleteIS0_EEdeEv
                                                                                                                                                                                                                    	call	_ZNKSt10unique_ptrI4ItemSt14default_deleteIS0_EEdeEv
                                                                                                                                                                                                                    	call	_ZNKSt10unique_ptrI4ItemSt14default_deleteIS0_EEdeEv
                                                                                                                                                                                                                    	call	_ZNKSt10unique_ptrI4ItemSt14default_deleteIS0_EEdeEv
                                                                                                                                                                                                                    	call	_ZNKSt10unique_ptrI4ItemSt14default_deleteIS0_EEdeEv
                                                                                                                                                                                                                    	call	_ZNKSt10unique_ptrI4ItemSt14default_deleteIS0_EEdeEv
                                                                                                                                                                                                                    	call	_ZNKSt10unique_ptrI4ItemSt14default_deleteIS0_EEdeEv
                                                                                                                                                                                                                    	call	_ZNKSt10unique_ptrI4ItemSt14default_deleteIS0_EEdeEv
                                                                                                                                                                                                                    	call	_ZNKSt10unique_ptrI4ItemSt14default_deleteIS0_EEdeEv
                                                                                                                                                                                                                        	call	_ZNKSt10unique_ptrI4ItemSt14default_deleteIS0_EEdeEv
                                                                                                                                                                                                                        	call	_ZNKSt10unique_ptrI4ItemSt14default_deleteIS0_EEdeEv
                                                                                                                                                                                                                        	call	_ZNKSt10unique_ptrI4ItemSt14default_deleteIS0_EEdeEv
                                                                                                                                                                                                                        	call	_ZNKSt10unique_ptrI4ItemSt14default_deleteIS0_EEdeEv
                                                                                                                                                                                                                        	call	_ZNKSt10unique_ptrI4ItemSt14default_deleteIS0_EEdeEv
                                                                                                                                                                                                                        	call	_ZNKSt10unique_ptrI4ItemSt14default_deleteIS0_EEdeEv
                                                                                                                                                                                                                        	call	_ZNKSt10unique_ptrI4ItemSt14default_deleteIS0_EEdeEv
                                                                                                                                                                                                                        	call	_ZNKSt10unique_ptrI4ItemSt14default_deleteIS0_EEdeEv
                                                                                                                                                                                                                        	call	_ZNKSt10unique_ptrI4ItemSt14default_deleteIS0_EEdeEv
                                                                                                                                                                                                                        	call	_ZNKSt10unique_ptrI4ItemSt14default_deleteIS0_EEdeEv
                                                                                                                                                                                                                            	call	_ZNKSt10unique_ptrI4ItemSt14default_deleteIS0_EEdeEv
                                                                                                                                                                                                                            	call	_ZNKSt10unique_ptrI4ItemSt14default_deleteIS0_EEdeEv
                                                                                                                                                                                                                            	call	_ZNKSt10unique_ptrI4ItemSt14default_deleteIS0_EEdeEv
                                                                                                                                                                                                                            	call	_ZNKSt10unique_ptrI4ItemSt14default_deleteIS0_EEdeEv
                                                                                                                                                                                                                            	call	_ZNKSt10unique_ptrI4ItemSt14default_deleteIS0_EEdeEv
                                                                                                                                                                                                                            	call	_ZNKSt10unique_ptrI4ItemSt14default_deleteIS0_EEdeEv
                                                                                                                                                                                                                            	call	_ZNKSt10unique_ptrI4ItemSt14default_deleteIS0_EEdeEv
                                                                                                                                                                                                                            	call	_ZNKSt10unique_ptrI4ItemSt14default_deleteIS0_EEdeEv
                                                                                                                                                                                                                            	call	_ZNKSt10unique_ptrI4ItemSt14default_deleteIS0_EEdeEv
                                                                                                                                                                                                                            	call	_ZNKSt10unique_ptrI4ItemSt14default_deleteIS0_EEdeEv
                                                                                                                                                                                                                                	call	_ZNKSt10unique_ptrI4ItemSt14default_deleteIS0_EEdeEv
                                                                                                                                                                                                                                	call	_ZNKSt10unique_ptrI4ItemSt14default_deleteIS0_EEdeEv
                                                                                                                                                                                                                                	call	_ZNKSt10unique_ptrI4ItemSt14default_deleteIS0_EEdeEv
                                                                                                                                                                                                                                	call	_ZNKSt10unique_ptrI4ItemSt14default_deleteIS0_EEdeEv
                                                                                                                                                                                                                                	call	_ZNKSt10unique_ptrI4ItemSt14default_deleteIS0_EEdeEv
                                                                                                                                                                                                                                	call	_ZNKSt10unique_ptrI4ItemSt14default_deleteIS0_EEdeEv
                                                                                                                                                                                                                                	call	_ZNKSt10unique_ptrI4ItemSt14default_deleteIS0_EEdeEv
                                                                                                                                                                                                                                	call	_ZNKSt10unique_ptrI4ItemSt14default_deleteIS0_EEdeEv
                                                                                                                                                                                                                                	call	_ZNKSt10unique_ptrI4ItemSt14default_deleteIS0_EEdeEv
                                                                                                                                                                                                                                	call	_ZNKSt10unique_ptrI4ItemSt14default_deleteIS0_EEdeEv
                                                                                                                                                                                                                                    	call	_ZNKSt10unique_ptrI4ItemSt14default_deleteIS0_EEdeEv
                                                                                                                                                                                                                                    	call	_ZNKSt10unique_ptrI4ItemSt14default_deleteIS0_EEdeEv
                                                                                                                                                                                                                                    	call	_ZNKSt10unique_ptrI4ItemSt14default_deleteIS0_EEdeEv
                                                                                                                                                                                                                                    	call	_ZNKSt10unique_ptrI4ItemSt14default_deleteIS0_EEdeEv
                                                                                                                                                                                                                                    	call	_ZNKSt10unique_ptrI4ItemSt14default_deleteIS0_EEdeEv
                                                                                                                                                                                                                                    	call	_ZNKSt10unique_ptrI4ItemSt14default_deleteIS0_EEdeEv
                                                                                                                                                                                                                                    	call	_ZNKSt10unique_ptrI4ItemSt14default_deleteIS0_EEdeEv
                                                                                                                                                                                                                                    	call	_ZNKSt10unique_ptrI4ItemSt14default_deleteIS0_EEdeEv
                                                                                                                                                                                                                                    	call	_ZNKSt10unique_ptrI4ItemSt14default_deleteIS0_EEdeEv
                                                                                                                                                                                                                                    	call	_ZNKSt10unique_ptrI4ItemSt14default_deleteIS0_EEdeEv
                                                                                                                                                                                                                                        	call	_ZNKSt10unique_ptrI4ItemSt14default_deleteIS0_EEdeEv
                                                                                                                                                                                                                                        	call	_ZNKSt10unique_ptrI4ItemSt14default_deleteIS0_EEdeEv
                                                                                                                                                                                                                                        	call	_ZNKSt10unique_ptrI4ItemSt14default_deleteIS0_EEdeEv
                                                                                                                                                                                                                                        	call	_ZNKSt10unique_ptrI4ItemSt14default_deleteIS0_EEdeEv
                                                                                                                                                                                                                                        	call	_ZNKSt10unique_ptrI4ItemSt14default_deleteIS0_EEdeEv
                                                                                                                                                                                                                                        	call	_ZNKSt10unique_ptrI4ItemSt14default_deleteIS0_EEdeEv
                                                                                                                                                                                                                                        	call	_ZNKSt10unique_ptrI4ItemSt14default_deleteIS0_EEdeEv
                                                                                                                                                                                                                                        	call	_ZNKSt10unique_ptrI4ItemSt14default_deleteIS0_EEdeEv
                                                                                                                                                                                                                                        	call	_ZNKSt10unique_ptrI4ItemSt14default_deleteIS0_EEdeEv
                                                                                                                                                                                                                                        	call	_ZNKSt10unique_ptrI4ItemSt14default_deleteIS0_EEdeEv
                                                                                                                                                                                                                                            	call	_ZNKSt10unique_ptrI4ItemSt14default_deleteIS0_EEdeEv
                                                                                                                                                                                                                                            	call	_ZNKSt10unique_ptrI4ItemSt14default_deleteIS0_EEdeEv
                                                                                                                                                                                                                                            	call	_ZNKSt10unique_ptrI4ItemSt14default_deleteIS0_EEdeEv
                                                                                                                                                                                                                                            	call	_ZNKSt10unique_ptrI4ItemSt14default_deleteIS0_EEdeEv
                                                                                                                                                                                                                                            	call	_ZNKSt10unique_ptrI4ItemSt14default_deleteIS0_EEdeEv
                                                                                                                                                                                                                                            	call	_ZNKSt10unique_ptrI4ItemSt14default_deleteIS0_EEdeEv
                                                                                                                                                                                                                                            	call	_ZNKSt10unique_ptrI4ItemSt14default_deleteIS0_EEdeEv
                                                                                                                                                                                                                                            	call	_ZNKSt10unique_ptrI4ItemSt14default_deleteIS0_EEdeEv
                                                                                                                                                                                                                                            	call	_ZNKSt10unique_ptrI4ItemSt14default_deleteIS0_EEdeEv
                                                                                                                                                                                                                                            	call	_ZNKSt10unique_ptrI4ItemSt14default_deleteIS0_EEdeEv
                                                                                                                                                                                                                                                	call	_ZNKSt10unique_ptrI4ItemSt14default_deleteIS0_EEdeEv
                                                                                                                                                                                                                                                	call	_ZNKSt10unique_ptrI4ItemSt14default_deleteIS0_EEdeEv
                                                                                                                                                                                                                                                	call	_ZNKSt10unique_ptrI4ItemSt14default_deleteIS0_EEdeEv
                                                                                                                                                                                                                                                	call	_ZNKSt10unique_ptrI4ItemSt14default_deleteIS0_EEdeEv
                                                                                                                                                                                                                                                	call	_ZNKSt10unique_ptrI4ItemSt14default_deleteIS0_EEdeEv
                                                                                                                                                                                                                                                	call	_ZNKSt10unique_ptrI4ItemSt14default_deleteIS0_EEdeEv
                                                                                                                                                                                                                                                	call	_ZNKSt10unique_ptrI4ItemSt14default_deleteIS0_EEdeEv
                                                                                                                                                                                                                                                	call	_ZNKSt10unique_ptrI4ItemSt14default_deleteIS0_EEdeEv
                                                                                                                                                                                                                                                	call	_ZNKSt10unique_ptrI4ItemSt14default_deleteIS0_EEdeEv
                                                                                                                                                                                                                                                	call	_ZNKSt10unique_ptrI4ItemSt14default_deleteIS0_EEdeEv
                                                                                                                                                                                                                                                    	call	_ZNKSt10unique_ptrI4ItemSt14default_deleteIS0_EEdeEv
                                                                                                                                                                                                                                                    	call	_ZNKSt10unique_ptrI4ItemSt14default_deleteIS0_EEdeEv
                                                                                                                                                                                                                                                    	call	_ZNKSt10unique_ptrI4ItemSt14default_deleteIS0_EEdeEv
                                                                                                                                                                                                                                                    	call	_ZNKSt10unique_ptrI4ItemSt14default_deleteIS0_EEdeEv
                                                                                                                                                                                                                                                    	call	_ZNKSt10unique_ptrI4ItemSt14default_deleteIS0_EEdeEv
                                                                                                                                                                                                                                                    	call	_ZNKSt10unique_ptrI4ItemSt14default_deleteIS0_EEdeEv
                                                                                                                                                                                                                                                    	call	_ZNKSt10unique_ptrI4ItemSt14default_deleteIS0_EEdeEv
                                                                                                                                                                                                                                                    	call	_ZNKSt10unique_ptrI4ItemSt14default_deleteIS0_EEdeEv
                                                                                                                                                                                                                                                    	call	_ZNKSt10unique_ptrI4ItemSt14default_deleteIS0_EEdeEv
                                                                                                                                                                                                                                                    	call	_ZNKSt10unique_ptrI4ItemSt14default_deleteIS0_EEdeEv
                                                                                                                                                                                                                                                        	call	_ZNKSt10unique_ptrI4ItemSt14default_deleteIS0_EEdeEv
                                                                                                                                                                                                                                                        	call	_ZNKSt10unique_ptrI4ItemSt14default_deleteIS0_EEdeEv
                                                                                                                                                                                                                                                        	call	_ZNKSt10unique_ptrI4ItemSt14default_deleteIS0_EEdeEv
                                                                                                                                                                                                                                                        	call	_ZNKSt10unique_ptrI4ItemSt14default_deleteIS0_EEdeEv
                                                                                                                                                                                                                                                        	call	_ZNKSt10unique_ptrI4ItemSt14default_deleteIS0_EEdeEv
                                                                                                                                                                                                                                                        	call	_ZNKSt10unique_ptrI4ItemSt14default_deleteIS0_EEdeEv
                                                                                                                                                                                                                                                        	call	_ZNKSt10unique_ptrI4ItemSt14default_deleteIS0_EEdeEv
                                                                                                                                                                                                                                                        	call	_ZNKSt10unique_ptrI4ItemSt14default_deleteIS0_EEdeEv
                                                                                                                                                                                                                                                        	call	_ZNKSt10unique_ptrI4ItemSt14default_deleteIS0_EEdeEv
                                                                                                                                                                                                                                                        	call	_ZNKSt10unique_ptrI4ItemSt14default_deleteIS0_EEdeEv
                                                                                                                                                                                                                                                            	call	_ZNKSt10unique_ptrI4ItemSt14default_deleteIS0_EEdeEv
                                                                                                                                                                                                                                                            	call	_ZNKSt10unique_ptrI4ItemSt14default_deleteIS0_EEdeEv
                                                                                                                                                                                                                                                            	call	_ZNKSt10unique_ptrI4ItemSt14default_deleteIS0_EEdeEv
                                                                                                                                                                                                                                                            	call	_ZNKSt10unique_ptrI4ItemSt14default_deleteIS0_EEdeEv
                                                                                                                                                                                                                                                            	call	_ZNKSt10unique_ptrI4ItemSt14default_deleteIS0_EEdeEv
                                                                                                                                                                                                                                                            	call	_ZNKSt10unique_ptrI4ItemSt14default_deleteIS0_EEdeEv
                                                                                                                                                                                                                                                            	call	_ZNKSt10unique_ptrI4ItemSt14default_deleteIS0_EEdeEv
                                                                                                                                                                                                                                                            	call	_ZNKSt10unique_ptrI4ItemSt14default_deleteIS0_EEdeEv
                                                                                                                                                                                                                                                            	call	_ZNKSt10unique_ptrI4ItemSt14default_deleteIS0_EEdeEv
                                                                                                                                                                                                                                                            	call	_ZNKSt10unique_ptrI4ItemSt14default_deleteIS0_EEdeEv
                                                                                                                                                                                                                                                                	call	_ZNKSt10unique_ptrI4ItemSt14default_deleteIS0_EEdeEv
                                                                                                                                                                                                                                                                	call	_ZNKSt10unique_ptrI4ItemSt14default_deleteIS0_EEdeEv
                                                                                                                                                                                                                                                                	call	_ZNKSt10unique_ptrI4ItemSt14default_deleteIS0_EEdeEv
                                                                                                                                                                                                                                                                	call	_ZNKSt10unique_ptrI4ItemSt14default_deleteIS0_EEdeEv
                                                                                                                                                                                                                                                                	call	_ZNKSt10unique_ptrI4ItemSt14default_deleteIS0_EEdeEv
                                                                                                                                                                                                                                                                	call	_ZNKSt10unique_ptrI4ItemSt14default_deleteIS0_EEdeEv
                                                                                                                                                                                                                                                                	call	_ZNKSt10unique_ptrI4ItemSt14default_deleteIS0_EEdeEv
                                                                                                                                                                                                                                                                	call	_ZNKSt10unique_ptrI4ItemSt14default_deleteIS0_EEdeEv
                                                                                                                                                                                                                                                                	call	_ZNKSt10unique_ptrI4ItemSt14default_deleteIS0_EEdeEv
                                                                                                                                                                                                                                                                	call	_ZNKSt10unique_ptrI4ItemSt14default_deleteIS0_EEdeEv
                                                                                                                                                                                                                                                                    	call	_ZNKSt10unique_ptrI4ItemSt14default_deleteIS0_EEdeEv
                                                                                                                                                                                                                                                                    	call	_ZNKSt10unique_ptrI4ItemSt14default_deleteIS0_EEdeEv
                                                                                                                                                                                                                                                                    	call	_ZNKSt10unique_ptrI4ItemSt14default_deleteIS0_EEdeEv
                                                                                                                                                                                                                                                                    	call	_ZNKSt10unique_ptrI4ItemSt14default_deleteIS0_EEdeEv
                                                                                                                                                                                                                                                                    	call	_ZNKSt10unique_ptrI4ItemSt14default_deleteIS0_EEdeEv
                                                                                                                                                                                                                                                                    	call	_ZNKSt10unique_ptrI4ItemSt14default_deleteIS0_EEdeEv
                                                                                                                                                                                                                                                                    	call	_ZNKSt10unique_ptrI4ItemSt14default_deleteIS0_EEdeEv
                                                                                                                                                                                                                                                                    	call	_ZNKSt10unique_ptrI4ItemSt14default_deleteIS0_EEdeEv
                                                                                                                                                                                                                                                                    	call	_ZNKSt10unique_ptrI4ItemSt14default_deleteIS0_EEdeEv
                                                                                                                                                                                                                                                                    	call	_ZNKSt10unique_ptrI4ItemSt14default_deleteIS0_EEdeEv
                                                                                                                                                                                                                                                                        	call	_ZNKSt10unique_ptrI4ItemSt14default_deleteIS0_EEdeEv
                                                                                                                                                                                                                                                                        	call	_ZNKSt10unique_ptrI4ItemSt14default_deleteIS0_EEdeEv
                                                                                                                                                                                                                                                                        	call	_ZNKSt10unique_ptrI4ItemSt14default_deleteIS0_EEdeEv
                                                                                                                                                                                                                                                                        	call	_ZNKSt10unique_ptrI4ItemSt14default_deleteIS0_EEdeEv
                                                                                                                                                                                                                                                                        	call	_ZNKSt10unique_ptrI4ItemSt14default_deleteIS0_EEdeEv
                                                                                                                                                                                                                                                                        	call	_ZNKSt10unique_ptrI4ItemSt14default_deleteIS0_EEdeEv
                                                                                                                                                                                                                                                                        	call	_ZNKSt10unique_ptrI4ItemSt14default_deleteIS0_EEdeEv
                                                                                                                                                                                                                                                                        	call	_ZNKSt10unique_ptrI4ItemSt14default_deleteIS0_EEdeEv
                                                                                                                                                                                                                                                                        	call	_ZNKSt10unique_ptrI4ItemSt14default_deleteIS0_EEdeEv
                                                                                                                                                                                                                                                                        	call	_ZNKSt10unique_ptrI4ItemSt14default_deleteIS0_EEdeEv
                                                                                                                                                                                                                                                                            	call	_ZNKSt10unique_ptrI4ItemSt14default_deleteIS0_EEdeEv
                                                                                                                                                                                                                                                                            	call	_ZNKSt10unique_ptrI4ItemSt14default_deleteIS0_EEdeEv
                                                                                                                                                                                                                                                                            	call	_ZNKSt10unique_ptrI4ItemSt14default_deleteIS0_EEdeEv
                                                                                                                                                                                                                                                                            	call	_ZNKSt10unique_ptrI4ItemSt14default_deleteIS0_EEdeEv
                                                                                                                                                                                                                                                                            	call	_ZNKSt10unique_ptrI4ItemSt14default_deleteIS0_EEdeEv
                                                                                                                                                                                                                                                                            	call	_ZNKSt10unique_ptrI4ItemSt14default_deleteIS0_EEdeEv
                                                                                                                                                                                                                                                                            	call	_ZNKSt10unique_ptrI4ItemSt14default_deleteIS0_EEdeEv
                                                                                                                                                                                                                                                                            	call	_ZNKSt10unique_ptrI4ItemSt14default_deleteIS0_EEdeEv
                                                                                                                                                                                                                                                                            	call	_ZNKSt10unique_ptrI4ItemSt14default_deleteIS0_EEdeEv
                                                                                                                                                                                                                                                                            	call	_ZNKSt10unique_ptrI4ItemSt14default_deleteIS0_EEdeEv
                                                                                                                                                                                                                                                                                	call	_ZNKSt10unique_ptrI4ItemSt14default_deleteIS0_EEdeEv
                                                                                                                                                                                                                                                                                	call	_ZNKSt10unique_ptrI4ItemSt14default_deleteIS0_EEdeEv
                                                                                                                                                                                                                                                                                	call	_ZNKSt10unique_ptrI4ItemSt14default_deleteIS0_EEdeEv
                                                                                                                                                                                                                                                                                	call	_ZNKSt10unique_ptrI4ItemSt14default_deleteIS0_EEdeEv
                                                                                                                                                                                                                                                                                	call	_ZNKSt10unique_ptrI4ItemSt14default_deleteIS0_EEdeEv
                                                                                                                                                                                                                                                                                	call	_ZNKSt10unique_ptrI4ItemSt14default_deleteIS0_EEdeEv
                                                                                                                                                                                                                                                                                	call	_ZNKSt10unique_ptrI4ItemSt14default_deleteIS0_EEdeEv
                                                                                                                                                                                                                                                                                	call	_ZNKSt10unique_ptrI4ItemSt14default_deleteIS0_EEdeEv
                                                                                                                                                                                                                                                                                	call	_ZNKSt10unique_ptrI4ItemSt14default_deleteIS0_EEdeEv
                                                                                                                                                                                                                                                                                	call	_ZNKSt10unique_ptrI4ItemSt14default_deleteIS0_EEdeEv
                                                                                                                                                                                                                                                                                    	call	_ZNKSt10unique_ptrI4ItemSt14default_deleteIS0_EEdeEv
                                                                                                                                                                                                                                                                                    	call	_ZNKSt10unique_ptrI4ItemSt14default_deleteIS0_EEdeEv
                                                                                                                                                                                                                                                                                    	call	_ZNKSt10unique_ptrI4ItemSt14default_deleteIS0_EEdeEv
                                                                                                                                                                                                                                                                                    	call	_ZNKSt10unique_ptrI4ItemSt14default_deleteIS0_EEdeEv
                                                                                                                                                                                                                                                                                    	call	_ZNKSt10unique_ptrI4ItemSt14default_deleteIS0_EEdeEv
                                                                                                                                                                                                                                                                                    	call	_ZNKSt10unique_ptrI4ItemSt14default_deleteIS0_EEdeEv
                                                                                                                                                                                                                                                                                    	call	_ZNKSt10unique_ptrI4ItemSt14default_deleteIS0_EEdeEv
                                                                                                                                                                                                                                                                                    	call	_ZNKSt10unique_ptrI4ItemSt14default_deleteIS0_EEdeEv
                                                                                                                                                                                                                                                                                    	call	_ZNKSt10unique_ptrI4ItemSt14default_deleteIS0_EEdeEv
                                                                                                                                                                                                                                                                                    	call	_ZNKSt10unique_ptrI4ItemSt14default_deleteIS0_EEdeEv
                                                                                                                                                                                                                                                                                        	call	_ZNKSt10unique_ptrI4ItemSt14default_deleteIS0_EEdeEv
                                                                                                                                                                                                                                                                                        	call	_ZNKSt10unique_ptrI4ItemSt14default_deleteIS0_EEdeEv
                                                                                                                                                                                                                                                                                        	call	_ZNKSt10unique_ptrI4ItemSt14default_deleteIS0_EEdeEv
                                                                                                                                                                                                                                                                                        	call	_ZNKSt10unique_ptrI4ItemSt14default_deleteIS0_EEdeEv
                                                                                                                                                                                                                                                                                        	call	_ZNKSt10unique_ptrI4ItemSt14default_deleteIS0_EEdeEv
                                                                                                                                                                                                                                                                                        	call	_ZNKSt10unique_ptrI4ItemSt14default_deleteIS0_EEdeEv
                                                                                                                                                                                                                                                                                        	call	_ZNKSt10unique_ptrI4ItemSt14default_deleteIS0_EEdeEv
                                                                                                                                                                                                                                                                                        	call	_ZNKSt10unique_ptrI4ItemSt14default_deleteIS0_EEdeEv
                                                                                                                                                                                                                                                                                        	call	_ZNKSt10unique_ptrI4ItemSt14default_deleteIS0_EEdeEv
                                                                                                                                                                                                                                                                                        	call	_ZNKSt10unique_ptrI4ItemSt14default_deleteIS0_EEdeEv
                                                                                                                                                                                                                                                                                            	call	_ZNKSt10unique_ptrI4ItemSt14default_deleteIS0_EEdeEv
                                                                                                                                                                                                                                                                                            	call	_ZNKSt10unique_ptrI4ItemSt14default_deleteIS0_EEdeEv
                                                                                                                                                                                                                                                                                            	call	_ZNKSt10unique_ptrI4ItemSt14default_deleteIS0_EEdeEv
                                                                                                                                                                                                                                                                                            	call	_ZNKSt10unique_ptrI4ItemSt14default_deleteIS0_EEdeEv
                                                                                                                                                                                                                                                                                            	call	_ZNKSt10unique_ptrI4ItemSt14default_deleteIS0_EEdeEv
                                                                                                                                                                                                                                                                                            	call	_ZNKSt10unique_ptrI4ItemSt14default_deleteIS0_EEdeEv
                                                                                                                                                                                                                                                                                            	call	_ZNKSt10unique_ptrI4ItemSt14default_deleteIS0_EEdeEv
                                                                                                                                                                                                                                                                                            	call	_ZNKSt10unique_ptrI4ItemSt14default_deleteIS0_EEdeEv
                                                                                                                                                                                                                                                                                            	call	_ZNKSt10unique_ptrI4ItemSt14default_deleteIS0_EEdeEv
                                                                                                                                                                                                                                                                                            	call	_ZNKSt10unique_ptrI4ItemSt14default_deleteIS0_EEdeEv
                                                                                                                                                                                                                                                                                                	call	_ZNKSt10unique_ptrI4ItemSt14default_deleteIS0_EEdeEv
                                                                                                                                                                                                                                                                                                	call	_ZNKSt10unique_ptrI4ItemSt14default_deleteIS0_EEdeEv
                                                                                                                                                                                                                                                                                                	call	_ZNKSt10unique_ptrI4ItemSt14default_deleteIS0_EEdeEv
                                                                                                                                                                                                                                                                                                	call	_ZNKSt10unique_ptrI4ItemSt14default_deleteIS0_EEdeEv
                                                                                                                                                                                                                                                                                                	call	_ZNKSt10unique_ptrI4ItemSt14default_deleteIS0_EEdeEv
                                                                                                                                                                                                                                                                                                	call	_ZNKSt10unique_ptrI4ItemSt14default_deleteIS0_EEdeEv
                                                                                                                                                                                                                                                                                                	call	_ZNKSt10unique_ptrI4ItemSt14default_deleteIS0_EEdeEv
                                                                                                                                                                                                                                                                                                	call	_ZNKSt10unique_ptrI4ItemSt14default_deleteIS0_EEdeEv
                                                                                                                                                                                                                                                                                                	call	_ZNKSt10unique_ptrI4ItemSt14default_deleteIS0_EEdeEv
                                                                                                                                                                                                                                                                                                	call	_ZNKSt10unique_ptrI4ItemSt14default_deleteIS0_EEdeEv
                                                                                                                                                                                                                                                                                                    	call	_ZNKSt10unique_ptrI4ItemSt14default_deleteIS0_EEdeEv
                                                                                                                                                                                                                                                                                                    	call	_ZNKSt10unique_ptrI4ItemSt14default_deleteIS0_EEdeEv
                                                                                                                                                                                                                                                                                                    	call	_ZNKSt10unique_ptrI4ItemSt14default_deleteIS0_EEdeEv
                                                                                                                                                                                                                                                                                                    	call	_ZNKSt10unique_ptrI4ItemSt14default_deleteIS0_EEdeEv
                                                                                                                                                                                                                                                                                                    	call	_ZNKSt10unique_ptrI4ItemSt14default_deleteIS0_EEdeEv
                                                                                                                                                                                                                                                                                                    	call	_ZNKSt10unique_ptrI4ItemSt14default_deleteIS0_EEdeEv
                                                                                                                                                                                                                                                                                                    	call	_ZNKSt10unique_ptrI4ItemSt14default_deleteIS0_EEdeEv
                                                                                                                                                                                                                                                                                                    	call	_ZNKSt10unique_ptrI4ItemSt14default_deleteIS0_EEdeEv
                                                                                                                                                                                                                                                                                                    	call	_ZNKSt10unique_ptrI4ItemSt14default_deleteIS0_EEdeEv
                                                                                                                                                                                                                                                                                                    	call	_ZNKSt10unique_ptrI4ItemSt14default_deleteIS0_EEdeEv
                                                                                                                                                                                                                                                                                                        	call	_ZNKSt10unique_ptrI4ItemSt14default_deleteIS0_EEdeEv
                                                                                                                                                                                                                                                                                                        	call	_ZNKSt10unique_ptrI4ItemSt14default_deleteIS0_EEdeEv
                                                                                                                                                                                                                                                                                                        	call	_ZNKSt10unique_ptrI4ItemSt14default_deleteIS0_EEdeEv
                                                                                                                                                                                                                                                                                                        	call	_ZNKSt10unique_ptrI4ItemSt14default_deleteIS0_EEdeEv
                                                                                                                                                                                                                                                                                                        	call	_ZNKSt10unique_ptrI4ItemSt14default_deleteIS0_EEdeEv
                                                                                                                                                                                                                                                                                                        	call	_ZNKSt10unique_ptrI4ItemSt14default_deleteIS0_EEdeEv
                                                                                                                                                                                                                                                                                                        	call	_ZNKSt10unique_ptrI4ItemSt14default_deleteIS0_EEdeEv
                                                                                                                                                                                                                                                                                                        	call	_ZNKSt10unique_ptrI4ItemSt14default_deleteIS0_EEdeEv
                                                                                                                                                                                                                                                                                                        	call	_ZNKSt10unique_ptrI4ItemSt14default_deleteIS0_EEdeEv
                                                                                                                                                                                                                                                                                                        	call	_ZNKSt10unique_ptrI4ItemSt14default_deleteIS0_EEdeEv
                                                                                                                                                                                                                                                                                                            	call	_ZNKSt10unique_ptrI4ItemSt14default_deleteIS0_EEdeEv
                                                                                                                                                                                                                                                                                                            	call	_ZNKSt10unique_ptrI4ItemSt14default_deleteIS0_EEdeEv
                                                                                                                                                                                                                                                                                                            	call	_ZNKSt10unique_ptrI4ItemSt14default_deleteIS0_EEdeEv
                                                                                                                                                                                                                                                                                                            	call	_ZNKSt10unique_ptrI4ItemSt14default_deleteIS0_EEdeEv
                                                                                                                                                                                                                                                                                                            	call	_ZNKSt10unique_ptrI4ItemSt14default_deleteIS0_EEdeEv
                                                                                                                                                                                                                                                                                                            	call	_ZNKSt10unique_ptrI4ItemSt14default_deleteIS0_EEdeEv
                                                                                                                                                                                                                                                                                                            	call	_ZNKSt10unique_ptrI4ItemSt14default_deleteIS0_EEdeEv
                                                                                                                                                                                                                                                                                                            	call	_ZNKSt10unique_ptrI4ItemSt14default_deleteIS0_EEdeEv
                                                                                                                                                                                                                                                                                                            	call	_ZNKSt10unique_ptrI4ItemSt14default_deleteIS0_EEdeEv
                                                                                                                                                                                                                                                                                                            	call	_ZNKSt10unique_ptrI4ItemSt14default_deleteIS0_EEdeEv
                                                                                                                                                                                                                                                                                                                	call	_ZNKSt10unique_ptrI4ItemSt14default_deleteIS0_EEdeEv
                                                                                                                                                                                                                                                                                                                	call	_ZNKSt10unique_ptrI4ItemSt14default_deleteIS0_EEdeEv
                                                                                                                                                                                                                                                                                                                	call	_ZNKSt10unique_ptrI4ItemSt14default_deleteIS0_EEdeEv
                                                                                                                                                                                                                                                                                                                	call	_ZNKSt10unique_ptrI4ItemSt14default_deleteIS0_EEdeEv
                                                                                                                                                                                                                                                                                                                	call	_ZNKSt10unique_ptrI4ItemSt14default_deleteIS0_EEdeEv
                                                                                                                                                                                                                                                                                                                	call	_ZNKSt10unique_ptrI4ItemSt14default_deleteIS0_EEdeEv
                                                                                                                                                                                                                                                                                                                	call	_ZNKSt10unique_ptrI4ItemSt14default_deleteIS0_EEdeEv
                                                                                                                                                                                                                                                                                                                	call	_ZNKSt10unique_ptrI4ItemSt14default_deleteIS0_EEdeEv
                                                                                                                                                                                                                                                                                                                	call	_ZNKSt10unique_ptrI4ItemSt14default_deleteIS0_EEdeEv
                                                                                                                                                                                                                                                                                                                	call	_ZNKSt10unique_ptrI4ItemSt14default_deleteIS0_EEdeEv
                                                                                                                                                                                                                                                                                                                    	call	_ZNKSt10unique_ptrI4ItemSt14default_deleteIS0_EEdeEv
                                                                                                                                                                                                                                                                                                                    	call	_ZNKSt10unique_ptrI4ItemSt14default_deleteIS0_EEdeEv
                                                                                                                                                                                                                                                                                                                    	call	_ZNKSt10unique_ptrI4ItemSt14default_deleteIS0_EEdeEv
                                                                                                                                                                                                                                                                                                                    	call	_ZNKSt10unique_ptrI4ItemSt14default_deleteIS0_EEdeEv
                                                                                                                                                                                                                                                                                                                    	call	_ZNKSt10unique_ptrI4ItemSt14default_deleteIS0_EEdeEv
                                                                                                                                                                                                                                                                                                                    	call	_ZNKSt10unique_ptrI4ItemSt14default_deleteIS0_EEdeEv
                                                                                                                                                                                                                                                                                                                    	call	_ZNKSt10unique_ptrI4ItemSt14default_deleteIS0_EEdeEv
                                                                                                                                                                                                                                                                                                                    	call	_ZNKSt10unique_ptrI4ItemSt14default_deleteIS0_EEdeEv
                                                                                                                                                                                                                                                                                                                    	call	_ZNKSt10unique_ptrI4ItemSt14default_deleteIS0_EEdeEv
                                                                                                                                                                                                                                                                                                                    	call	_ZNKSt10unique_ptrI4ItemSt14default_deleteIS0_EEdeEv
                                                                                                                                                                                                                                                                                                                        	call	_ZNKSt10unique_ptrI4ItemSt14default_deleteIS0_EEdeEv
                                                                                                                                                                                                                                                                                                                        	call	_ZNKSt10unique_ptrI4ItemSt14default_deleteIS0_EEdeEv
                                                                                                                                                                                                                                                                                                                        	call	_ZNKSt10unique_ptrI4ItemSt14default_deleteIS0_EEdeEv
                                                                                                                                                                                                                                                                                                                        	call	_ZNKSt10unique_ptrI4ItemSt14default_deleteIS0_EEdeEv
                                                                                                                                                                                                                                                                                                                        	call	_ZNKSt10unique_ptrI4ItemSt14default_deleteIS0_EEdeEv
                                                                                                                                                                                                                                                                                                                        	call	_ZNKSt10unique_ptrI4ItemSt14default_deleteIS0_EEdeEv
                                                                                                                                                                                                                                                                                                                        	call	_ZNKSt10unique_ptrI4ItemSt14default_deleteIS0_EEdeEv
                                                                                                                                                                                                                                                                                                                        	call	_ZNKSt10unique_ptrI4ItemSt14default_deleteIS0_EEdeEv
                                                                                                                                                                                                                                                                                                                        	call	_ZNKSt10unique_ptrI4ItemSt14default_deleteIS0_EEdeEv
                                                                                                                                                                                                                                                                                                                        	call	_ZNKSt10unique_ptrI4ItemSt14default_deleteIS0_EEdeEv
                                                                                                                                                                                                                                                                                                                            	call	_ZNKSt10unique_ptrI4ItemSt14default_deleteIS0_EEdeEv
                                                                                                                                                                                                                                                                                                                            	call	_ZNKSt10unique_ptrI4ItemSt14default_deleteIS0_EEdeEv
                                                                                                                                                                                                                                                                                                                            	call	_ZNKSt10unique_ptrI4ItemSt14default_deleteIS0_EEdeEv
                                                                                                                                                                                                                                                                                                                            	call	_ZNKSt10unique_ptrI4ItemSt14default_deleteIS0_EEdeEv
                                                                                                                                                                                                                                                                                                                            	call	_ZNKSt10unique_ptrI4ItemSt14default_deleteIS0_EEdeEv
                                                                                                                                                                                                                                                                                                                            	call	_ZNKSt10unique_ptrI4ItemSt14default_deleteIS0_EEdeEv
                                                                                                                                                                                                                                                                                                                            	call	_ZNKSt10unique_ptrI4ItemSt14default_deleteIS0_EEdeEv
                                                                                                                                                                                                                                                                                                                            	call	_ZNKSt10unique_ptrI4ItemSt14default_deleteIS0_EEdeEv
                                                                                                                                                                                                                                                                                                                            	call	_ZNKSt10unique_ptrI4ItemSt14default_deleteIS0_EEdeEv
                                                                                                                                                                                                                                                                                                                            	call	_ZNKSt10unique_ptrI4ItemSt14default_deleteIS0_EEdeEv
                                                                                                                                                                                                                                                                                                                                	call	_ZNKSt10unique_ptrI4ItemSt14default_deleteIS0_EEdeEv
                                                                                                                                                                                                                                                                                                                                	call	_ZNKSt10unique_ptrI4ItemSt14default_deleteIS0_EEdeEv
                                                                                                                                                                                                                                                                                                                                	call	_ZNKSt10unique_ptrI4ItemSt14default_deleteIS0_EEdeEv
                                                                                                                                                                                                                                                                                                                                	call	_ZNKSt10unique_ptrI4ItemSt14default_deleteIS0_EEdeEv
                                                                                                                                                                                                                                                                                                                                	call	_ZNKSt10unique_ptrI4ItemSt14default_deleteIS0_EEdeEv
                                                                                                                                                                                                                                                                                                                                	call	_ZNKSt10unique_ptrI4ItemSt14default_deleteIS0_EEdeEv
                                                                                                                                                                                                                                                                                                                                	call	_ZNKSt10unique_ptrI4ItemSt14default_deleteIS0_EEdeEv
                                                                                                                                                                                                                                                                                                                                	call	_ZNKSt10unique_ptrI4ItemSt14default_deleteIS0_EEdeEv
                                                                                                                                                                                                                                                                                                                                	call	_ZNKSt10unique_ptrI4ItemSt14default_deleteIS0_EEdeEv
                                                                                                                                                                                                                                                                                                                                	call	_ZNKSt10unique_ptrI4ItemSt14default_deleteIS0_EEdeEv
                                                                                                                                                                                                                                                                                                                                    	call	_ZNKSt10unique_ptrI4ItemSt14default_deleteIS0_EEdeEv
                                                                                                                                                                                                                                                                                                                                    	call	_ZNKSt10unique_ptrI4ItemSt14default_deleteIS0_EEdeEv
                                                                                                                                                                                                                                                                                                                                    	call	_ZNKSt10unique_ptrI4ItemSt14default_deleteIS0_EEdeEv
                                                                                                                                                                                                                                                                                                                                    	call	_ZNKSt10unique_ptrI4ItemSt14default_deleteIS0_EEdeEv
                                                                                                                                                                                                                                                                                                                                    	call	_ZNKSt10unique_ptrI4ItemSt14default_deleteIS0_EEdeEv
                                                                                                                                                                                                                                                                                                                                    	call	_ZNKSt10unique_ptrI4ItemSt14default_deleteIS0_EEdeEv
                                                                                                                                                                                                                                                                                                                                    	call	_ZNKSt10unique_ptrI4ItemSt14default_deleteIS0_EEdeEv
                                                                                                                                                                                                                                                                                                                                    	call	_ZNKSt10unique_ptrI4ItemSt14default_deleteIS0_EEdeEv
                                                                                                                                                                                                                                                                                                                                    	call	_ZNKSt10unique_ptrI4ItemSt14default_deleteIS0_EEdeEv
                                                                                                                                                                                                                                                                                                                                    	call	_ZNKSt10unique_ptrI4ItemSt14default_deleteIS0_EEdeEv
                                                                                                                                                                                                                                                                                                                                        	call	_ZNKSt10unique_ptrI4ItemSt14default_deleteIS0_EEdeEv
                                                                                                                                                                                                                                                                                                                                        	call	_ZNKSt10unique_ptrI4ItemSt14default_deleteIS0_EEdeEv
                                                                                                                                                                                                                                                                                                                                        	call	_ZNKSt10unique_ptrI4ItemSt14default_deleteIS0_EEdeEv
                                                                                                                                                                                                                                                                                                                                        	call	_ZNKSt10unique_ptrI4ItemSt14default_deleteIS0_EEdeEv
                                                                                                                                                                                                                                                                                                                                        	call	_ZNKSt10unique_ptrI4ItemSt14default_deleteIS0_EEdeEv
                                                                                                                                                                                                                                                                                                                                        	call	_ZNKSt10unique_ptrI4ItemSt14default_deleteIS0_EEdeEv
                                                                                                                                                                                                                                                                                                                                        	call	_ZNKSt10unique_ptrI4ItemSt14default_deleteIS0_EEdeEv
                                                                                                                                                                                                                                                                                                                                        	call	_ZNKSt10unique_ptrI4ItemSt14default_deleteIS0_EEdeEv
                                                                                                                                                                                                                                                                                                                                        	call	_ZNKSt10unique_ptrI4ItemSt14default_deleteIS0_EEdeEv
                                                                                                                                                                                                                                                                                                                                        	call	_ZNKSt10unique_ptrI4ItemSt14default_deleteIS0_EEdeEv
                                                                                                                                                                                                                                                                                                                                            	call	_ZNKSt10unique_ptrI4ItemSt14default_deleteIS0_EEdeEv
                                                                                                                                                                                                                                                                                                                                            	call	_ZNKSt10unique_ptrI4ItemSt14default_deleteIS0_EEdeEv
                                                                                                                                                                                                                                                                                                                                            	call	_ZNKSt10unique_ptrI4ItemSt14default_deleteIS0_EEdeEv
                                                                                                                                                                                                                                                                                                                                            	call	_ZNKSt10unique_ptrI4ItemSt14default_deleteIS0_EEdeEv
                                                                                                                                                                                                                                                                                                                                            	call	_ZNKSt10unique_ptrI4ItemSt14default_deleteIS0_EEdeEv
                                                                                                                                                                                                                                                                                                                                            	call	_ZNKSt10unique_ptrI4ItemSt14default_deleteIS0_EEdeEv
                                                                                                                                                                                                                                                                                                                                            	call	_ZNKSt10unique_ptrI4ItemSt14default_deleteIS0_EEdeEv
                                                                                                                                                                                                                                                                                                                                            	call	_ZNKSt10unique_ptrI4ItemSt14default_deleteIS0_EEdeEv
                                                                                                                                                                                                                                                                                                                                            	call	_ZNKSt10unique_ptrI4ItemSt14default_deleteIS0_EEdeEv
                                                                                                                                                                                                                                                                                                                                            	call	_ZNKSt10unique_ptrI4ItemSt14default_deleteIS0_EEdeEv
                                                                                                                                                                                                                                                                                                                                                	call	_ZNKSt10unique_ptrI4ItemSt14default_deleteIS0_EEdeEv
                                                                                                                                                                                                                                                                                                                                                	call	_ZNKSt10unique_ptrI4ItemSt14default_deleteIS0_EEdeEv
                                                                                                                                                                                                                                                                                                                                                	call	_ZNKSt10unique_ptrI4ItemSt14default_deleteIS0_EEdeEv
                                                                                                                                                                                                                                                                                                                                                	call	_ZNKSt10unique_ptrI4ItemSt14default_deleteIS0_EEdeEv
                                                                                                                                                                                                                                                                                                                                                	call	_ZNKSt10unique_ptrI4ItemSt14default_deleteIS0_EEdeEv
                                                                                                                                                                                                                                                                                                                                                	call	_ZNKSt10unique_ptrI4ItemSt14default_deleteIS0_EEdeEv
                                                                                                                                                                                                                                                                                                                                                	call	_ZNKSt10unique_ptrI4ItemSt14default_deleteIS0_EEdeEv
                                                                                                                                                                                                                                                                                                                                                	call	_ZNKSt10unique_ptrI4ItemSt14default_deleteIS0_EEdeEv
                                                                                                                                                                                                                                                                                                                                                	call	_ZNKSt10unique_ptrI4ItemSt14default_deleteIS0_EEdeEv
                                                                                                                                                                                                                                                                                                                                                	call	_ZNKSt10unique_ptrI4ItemSt14default_deleteIS0_EEdeEv
                                                                                                                                                                                                                                                                                                                                                    	call	_ZNKSt10unique_ptrI4ItemSt14default_deleteIS0_EEdeEv
                                                                                                                                                                                                                                                                                                                                                    	call	_ZNKSt10unique_ptrI4ItemSt14default_deleteIS0_EEdeEv
                                                                                                                                                                                                                                                                                                                                                    	call	_ZNKSt10unique_ptrI4ItemSt14default_deleteIS0_EEdeEv
                                                                                                                                                                                                                                                                                                                                                    	call	_ZNKSt10unique_ptrI4ItemSt14default_deleteIS0_EEdeEv
                                                                                                                                                                                                                                                                                                                                                    	call	_ZNKSt10unique_ptrI4ItemSt14default_deleteIS0_EEdeEv
                                                                                                                                                                                                                                                                                                                                                    	call	_ZNKSt10unique_ptrI4ItemSt14default_deleteIS0_EEdeEv
                                                                                                                                                                                                                                                                                                                                                    	call	_ZNKSt10unique_ptrI4ItemSt14default_deleteIS0_EEdeEv
                                                                                                                                                                                                                                                                                                                                                    	call	_ZNKSt10unique_ptrI4ItemSt14default_deleteIS0_EEdeEv
                                                                                                                                                                                                                                                                                                                                                    	call	_ZNKSt10unique_ptrI4ItemSt14default_deleteIS0_EEdeEv
                                                                                                                                                                                                                                                                                                                                                    	call	_ZNKSt10unique_ptrI4ItemSt14default_deleteIS0_EEdeEv
                                                                                                                                                                                                                                                                                                                                                        	call	_ZNKSt10unique_ptrI4ItemSt14default_deleteIS0_EEdeEv
                                                                                                                                                                                                                                                                                                                                                        	call	_ZNKSt10unique_ptrI4ItemSt14default_deleteIS0_EEdeEv
                                                                                                                                                                                                                                                                                                                                                        	call	_ZNKSt10unique_ptrI4ItemSt14default_deleteIS0_EEdeEv
                                                                                                                                                                                                                                                                                                                                                        	call	_ZNKSt10unique_ptrI4ItemSt14default_deleteIS0_EEdeEv
                                                                                                                                                                                                                                                                                                                                                        	call	_ZNKSt10unique_ptrI4ItemSt14default_deleteIS0_EEdeEv
                                                                                                                                                                                                                                                                                                                                                        	call	_ZNKSt10unique_ptrI4ItemSt14default_deleteIS0_EEdeEv
                                                                                                                                                                                                                                                                                                                                                        	call	_ZNKSt10unique_ptrI4ItemSt14default_deleteIS0_EEdeEv
                                                                                                                                                                                                                                                                                                                                                        	call	_ZNKSt10unique_ptrI4ItemSt14default_deleteIS0_EEdeEv
                                                                                                                                                                                                                                                                                                                                                        	call	_ZNKSt10unique_ptrI4ItemSt14default_deleteIS0_EEdeEv
                                                                                                                                                                                                                                                                                                                                                        	call	_ZNKSt10unique_ptrI4ItemSt14default_deleteIS0_EEdeEv
                                                                                                                                                                                                                                                                                                                                                            	call	_ZNKSt10unique_ptrI4ItemSt14default_deleteIS0_EEdeEv
                                                                                                                                                                                                                                                                                                                                                            	call	_ZNKSt10unique_ptrI4ItemSt14default_deleteIS0_EEdeEv
                                                                                                                                                                                                                                                                                                                                                            	call	_ZNKSt10unique_ptrI4ItemSt14default_deleteIS0_EEdeEv
                                                                                                                                                                                                                                                                                                                                                            	call	_ZNKSt10unique_ptrI4ItemSt14default_deleteIS0_EEdeEv
                                                                                                                                                                                                                                                                                                                                                            	call	_ZNKSt10unique_ptrI4ItemSt14default_deleteIS0_EEdeEv
                                                                                                                                                                                                                                                                                                                                                            	call	_ZNKSt10unique_ptrI4ItemSt14default_deleteIS0_EEdeEv
                                                                                                                                                                                                                                                                                                                                                            	call	_ZNKSt10unique_ptrI4ItemSt14default_deleteIS0_EEdeEv
                                                                                                                                                                                                                                                                                                                                                            	call	_ZNKSt10unique_ptrI4ItemSt14default_deleteIS0_EEdeEv
                                                                                                                                                                                                                                                                                                                                                            	call	_ZNKSt10unique_ptrI4ItemSt14default_deleteIS0_EEdeEv
                                                                                                                                                                                                                                                                                                                                                            	call	_ZNKSt10unique_ptrI4ItemSt14default_deleteIS0_EEdeEv
                                                                                                                                                                                                                                                                                                                                                                	call	_ZNKSt10unique_ptrI4ItemSt14default_deleteIS0_EEdeEv
                                                                                                                                                                                                                                                                                                                                                                	call	_ZNKSt10unique_ptrI4ItemSt14default_deleteIS0_EEdeEv
                                                                                                                                                                                                                                                                                                                                                                	call	_ZNKSt10unique_ptrI4ItemSt14default_deleteIS0_EEdeEv
                                                                                                                                                                                                                                                                                                                                                                	call	_ZNKSt10unique_ptrI4ItemSt14default_deleteIS0_EEdeEv
                                                                                                                                                                                                                                                                                                                                                                	call	_ZNKSt10unique_ptrI4ItemSt14default_deleteIS0_EEdeEv
                                                                                                                                                                                                                                                                                                                                                                	call	_ZNKSt10unique_ptrI4ItemSt14default_deleteIS0_EEdeEv
                                                                                                                                                                                                                                                                                                                                                                	call	_ZNKSt10unique_ptrI4ItemSt14default_deleteIS0_EEdeEv
                                                                                                                                                                                                                                                                                                                                                                	call	_ZNKSt10unique_ptrI4ItemSt14default_deleteIS0_EEdeEv
                                                                                                                                                                                                                                                                                                                                                                	call	_ZNKSt10unique_ptrI4ItemSt14default_deleteIS0_EEdeEv
                                                                                                                                                                                                                                                                                                                                                                	call	_ZNKSt10unique_ptrI4ItemSt14default_deleteIS0_EEdeEv
                                                                                                                                                                                                                                                                                                                                                                    	call	_ZNKSt10unique_ptrI4ItemSt14default_deleteIS0_EEdeEv
                                                                                                                                                                                                                                                                                                                                                                    	call	_ZNKSt10unique_ptrI4ItemSt14default_deleteIS0_EEdeEv
                                                                                                                                                                                                                                                                                                                                                                    	call	_ZNKSt10unique_ptrI4ItemSt14default_deleteIS0_EEdeEv
                                                                                                                                                                                                                                                                                                                                                                    	call	_ZNKSt10unique_ptrI4ItemSt14default_deleteIS0_EEdeEv
                                                                                                                                                                                                                                                                                                                                                                    	call	_ZNKSt10unique_ptrI4ItemSt14default_deleteIS0_EEdeEv
                                                                                                                                                                                                                                                                                                                                                                    	call	_ZNKSt10unique_ptrI4ItemSt14default_deleteIS0_EEdeEv
                                                                                                                                                                                                                                                                                                                                                                    	call	_ZNKSt10unique_ptrI4ItemSt14default_deleteIS0_EEdeEv
                                                                                                                                                                                                                                                                                                                                                                    	call	_ZNKSt10unique_ptrI4ItemSt14default_deleteIS0_EEdeEv
                                                                                                                                                                                                                                                                                                                                                                    	call	_ZNKSt10unique_ptrI4ItemSt14default_deleteIS0_EEdeEv
                                                                                                                                                                                                                                                                                                                                                                    	call	_ZNKSt10unique_ptrI4ItemSt14default_deleteIS0_EEdeEv
                                                                                                                                                                                                                                                                                                                                                                        	call	_ZNKSt10unique_ptrI4ItemSt14default_deleteIS0_EEdeEv
                                                                                                                                                                                                                                                                                                                                                                        	call	_ZNKSt10unique_ptrI4ItemSt14default_deleteIS0_EEdeEv
                                                                                                                                                                                                                                                                                                                                                                        	call	_ZNKSt10unique_ptrI4ItemSt14default_deleteIS0_EEdeEv
                                                                                                                                                                                                                                                                                                                                                                        	call	_ZNKSt10unique_ptrI4ItemSt14default_deleteIS0_EEdeEv
                                                                                                                                                                                                                                                                                                                                                                        	call	_ZNKSt10unique_ptrI4ItemSt14default_deleteIS0_EEdeEv
                                                                                                                                                                                                                                                                                                                                                                        	call	_ZNKSt10unique_ptrI4ItemSt14default_deleteIS0_EEdeEv
                                                                                                                                                                                                                                                                                                                                                                        	call	_ZNKSt10unique_ptrI4ItemSt14default_deleteIS0_EEdeEv
                                                                                                                                                                                                                                                                                                                                                                        	call	_ZNKSt10unique_ptrI4ItemSt14default_deleteIS0_EEdeEv
                                                                                                                                                                                                                                                                                                                                                                        	call	_ZNKSt10unique_ptrI4ItemSt14default_deleteIS0_EEdeEv
                                                                                                                                                                                                                                                                                                                                                                        	call	_ZNKSt10unique_ptrI4ItemSt14default_deleteIS0_EEdeEv
                                                                                                                                                                                                                                                                                                                                                                            	call	_ZNKSt10unique_ptrI4ItemSt14default_deleteIS0_EEdeEv
                                                                                                                                                                                                                                                                                                                                                                            	call	_ZNKSt10unique_ptrI4ItemSt14default_deleteIS0_EEdeEv
                                                                                                                                                                                                                                                                                                                                                                            	call	_ZNKSt10unique_ptrI4ItemSt14default_deleteIS0_EEdeEv
                                                                                                                                                                                                                                                                                                                                                                            	call	_ZNKSt10unique_ptrI4ItemSt14default_deleteIS0_EEdeEv
                                                                                                                                                                                                                                                                                                                                                                            	call	_ZNKSt10unique_ptrI4ItemSt14default_deleteIS0_EEdeEv
                                                                                                                                                                                                                                                                                                                                                                            	call	_ZNKSt10unique_ptrI4ItemSt14default_deleteIS0_EEdeEv
                                                                                                                                                                                                                                                                                                                                                                            	call	_ZNKSt10unique_ptrI4ItemSt14default_deleteIS0_EEdeEv
                                                                                                                                                                                                                                                                                                                                                                            	call	_ZNKSt10unique_ptrI4ItemSt14default_deleteIS0_EEdeEv
                                                                                                                                                                                                                                                                                                                                                                            	call	_ZNKSt10unique_ptrI4ItemSt14default_deleteIS0_EEdeEv
                                                                                                                                                                                                                                                                                                                                                                            	call	_ZNKSt10unique_ptrI4ItemSt14default_deleteIS0_EEdeEv
                                                                                                                                                                                                                                                                                                                                                                                	call	_ZNKSt10unique_ptrI4ItemSt14default_deleteIS0_EEdeEv
                                                                                                                                                                                                                                                                                                                                                                                	call	_ZNKSt10unique_ptrI4ItemSt14default_deleteIS0_EEdeEv
                                                                                                                                                                                                                                                                                                                                                                                	call	_ZNKSt10unique_ptrI4ItemSt14default_deleteIS0_EEdeEv
                                                                                                                                                                                                                                                                                                                                                                                	call	_ZNKSt10unique_ptrI4ItemSt14default_deleteIS0_EEdeEv
                                                                                                                                                                                                                                                                                                                                                                                	call	_ZNKSt10unique_ptrI4ItemSt14default_deleteIS0_EEdeEv
                                                                                                                                                                                                                                                                                                                                                                                	call	_ZNKSt10unique_ptrI4ItemSt14default_deleteIS0_EEdeEv
                                                                                                                                                                                                                                                                                                                                                                                	call	_ZNKSt10unique_ptrI4ItemSt14default_deleteIS0_EEdeEv
                                                                                                                                                                                                                                                                                                                                                                                	call	_ZNKSt10unique_ptrI4ItemSt14default_deleteIS0_EEdeEv
                                                                                                                                                                                                                                                                                                                                                                                	call	_ZNKSt10unique_ptrI4ItemSt14default_deleteIS0_EEdeEv
                                                                                                                                                                                                                                                                                                                                                                                	call	_ZNKSt10unique_ptrI4ItemSt14default_deleteIS0_EEdeEv
                                                                                                                                                                                                                                                                                                                                                                                    	call	_ZNKSt10unique_ptrI4ItemSt14default_deleteIS0_EEdeEv
                                                                                                                                                                                                                                                                                                                                                                                    	call	_ZNKSt10unique_ptrI4ItemSt14default_deleteIS0_EEdeEv
                                                                                                                                                                                                                                                                                                                                                                                    	call	_ZNKSt10unique_ptrI4ItemSt14default_deleteIS0_EEdeEv
                                                                                                                                                                                                                                                                                                                                                                                    	call	_ZNKSt10unique_ptrI4ItemSt14default_deleteIS0_EEdeEv
                                                                                                                                                                                                                                                                                                                                                                                    	call	_ZNKSt10unique_ptrI4ItemSt14default_deleteIS0_EEdeEv
                                                                                                                                                                                                                                                                                                                                                                                    	call	_ZNKSt10unique_ptrI4ItemSt14default_deleteIS0_EEdeEv
                                                                                                                                                                                                                                                                                                                                                                                    	call	_ZNKSt10unique_ptrI4ItemSt14default_deleteIS0_EEdeEv
                                                                                                                                                                                                                                                                                                                                                                                    	call	_ZNKSt10unique_ptrI4ItemSt14default_deleteIS0_EEdeEv
                                                                                                                                                                                                                                                                                                                                                                                    	call	_ZNKSt10unique_ptrI4ItemSt14default_deleteIS0_EEdeEv
                                                                                                                                                                                                                                                                                                                                                                                    	call	_ZNKSt10unique_ptrI4ItemSt14default_deleteIS0_EEdeEv
                                                                                                                                                                                                                                                                                                                                                                                        	call	_ZNKSt10unique_ptrI4ItemSt14default_deleteIS0_EEdeEv
                                                                                                                                                                                                                                                                                                                                                                                        	call	_ZNKSt10unique_ptrI4ItemSt14default_deleteIS0_EEdeEv
                                                                                                                                                                                                                                                                                                                                                                                        	call	_ZNKSt10unique_ptrI4ItemSt14default_deleteIS0_EEdeEv
                                                                                                                                                                                                                                                                                                                                                                                        	call	_ZNKSt10unique_ptrI4ItemSt14default_deleteIS0_EEdeEv
                                                                                                                                                                                                                                                                                                                                                                                        	call	_ZNKSt10unique_ptrI4ItemSt14default_deleteIS0_EEdeEv
                                                                                                                                                                                                                                                                                                                                                                                        	call	_ZNKSt10unique_ptrI4ItemSt14default_deleteIS0_EEdeEv
                                                                                                                                                                                                                                                                                                                                                                                        	call	_ZNKSt10unique_ptrI4ItemSt14default_deleteIS0_EEdeEv
                                                                                                                                                                                                                                                                                                                                                                                        	call	_ZNKSt10unique_ptrI4ItemSt14default_deleteIS0_EEdeEv
                                                                                                                                                                                                                                                                                                                                                                                        	call	_ZNKSt10unique_ptrI4ItemSt14default_deleteIS0_EEdeEv
                                                                                                                                                                                                                                                                                                                                                                                        	call	_ZNKSt10unique_ptrI4ItemSt14default_deleteIS0_EEdeEv
                                                                                                                                                                                                                                                                                                                                                                                            	call	_ZNKSt10unique_ptrI4ItemSt14default_deleteIS0_EEdeEv
                                                                                                                                                                                                                                                                                                                                                                                            	call	_ZNKSt10unique_ptrI4ItemSt14default_deleteIS0_EEdeEv
                                                                                                                                                                                                                                                                                                                                                                                            	call	_ZNKSt10unique_ptrI4ItemSt14default_deleteIS0_EEdeEv
                                                                                                                                                                                                                                                                                                                                                                                            	call	_ZNKSt10unique_ptrI4ItemSt14default_deleteIS0_EEdeEv
                                                                                                                                                                                                                                                                                                                                                                                            	call	_ZNKSt10unique_ptrI4ItemSt14default_deleteIS0_EEdeEv
                                                                                                                                                                                                                                                                                                                                                                                            	call	_ZNKSt10unique_ptrI4ItemSt14default_deleteIS0_EEdeEv
                                                                                                                                                                                                                                                                                                                                                                                            	call	_ZNKSt10unique_ptrI4ItemSt14default_deleteIS0_EEdeEv
                                                                                                                                                                                                                                                                                                                                                                                            	call	_ZNKSt10unique_ptrI4ItemSt14default_deleteIS0_EEdeEv
                                                                                                                                                                                                                                                                                                                                                                                            	call	_ZNKSt10unique_ptrI4ItemSt14default_deleteIS0_EEdeEv
                                                                                                                                                                                                                                                                                                                                                                                            	call	_ZNKSt10unique_ptrI4ItemSt14default_deleteIS0_EEdeEv
